
kernel/kernel:     formato del fichero elf64-littleriscv


Desensamblado de la sección .text:

0000000080000000 <_entry>:
    80000000:	00008117          	auipc	sp,0x8
    80000004:	99010113          	addi	sp,sp,-1648 # 80007990 <stack0>
    80000008:	6505                	lui	a0,0x1
    8000000a:	f14025f3          	csrr	a1,mhartid
    8000000e:	0585                	addi	a1,a1,1
    80000010:	02b50533          	mul	a0,a0,a1
    80000014:	912a                	add	sp,sp,a0
    80000016:	04a000ef          	jal	80000060 <start>

000000008000001a <spin>:
    8000001a:	a001                	j	8000001a <spin>

000000008000001c <timerinit>:
}

// ask each hart to generate timer interrupts.
void
timerinit()
{
    8000001c:	1141                	addi	sp,sp,-16
    8000001e:	e422                	sd	s0,8(sp)
    80000020:	0800                	addi	s0,sp,16
#define MIE_STIE (1L << 5)  // supervisor timer
static inline uint64
r_mie()
{
  uint64 x;
  asm volatile("csrr %0, mie" : "=r" (x) );
    80000022:	304027f3          	csrr	a5,mie
  // enable supervisor-mode timer interrupts.
  w_mie(r_mie() | MIE_STIE);
    80000026:	0207e793          	ori	a5,a5,32
}

static inline void 
w_mie(uint64 x)
{
  asm volatile("csrw mie, %0" : : "r" (x));
    8000002a:	30479073          	csrw	mie,a5
// Machine Environment Configuration Register
static inline uint64
r_menvcfg()
{
  uint64 x;
  asm volatile("csrr %0, menvcfg" : "=r" (x) );
    8000002e:	30a027f3          	csrr	a5,0x30a
  
  // enable the sstc extension (i.e. stimecmp).
  w_menvcfg(r_menvcfg() | (1L << 63)); 
    80000032:	577d                	li	a4,-1
    80000034:	177e                	slli	a4,a4,0x3f
    80000036:	8fd9                	or	a5,a5,a4
}

static inline void 
w_menvcfg(uint64 x)
{
  asm volatile("csrw menvcfg, %0" : : "r" (x));
    80000038:	30a79073          	csrw	0x30a,a5

static inline uint64
r_mcounteren()
{
  uint64 x;
  asm volatile("csrr %0, mcounteren" : "=r" (x) );
    8000003c:	306027f3          	csrr	a5,mcounteren
  
  // allow supervisor to use stimecmp and time.
  w_mcounteren(r_mcounteren() | 2);
    80000040:	0027e793          	ori	a5,a5,2
  asm volatile("csrw mcounteren, %0" : : "r" (x));
    80000044:	30679073          	csrw	mcounteren,a5
// machine-mode cycle counter
static inline uint64
r_time()
{
  uint64 x;
  asm volatile("csrr %0, time" : "=r" (x) );
    80000048:	c01027f3          	rdtime	a5
  
  // ask for the very first timer interrupt.
  w_stimecmp(r_time() + 1000000);
    8000004c:	000f4737          	lui	a4,0xf4
    80000050:	24070713          	addi	a4,a4,576 # f4240 <_entry-0x7ff0bdc0>
    80000054:	97ba                	add	a5,a5,a4
  asm volatile("csrw stimecmp, %0" : : "r" (x));
    80000056:	14d79073          	csrw	stimecmp,a5
}
    8000005a:	6422                	ld	s0,8(sp)
    8000005c:	0141                	addi	sp,sp,16
    8000005e:	8082                	ret

0000000080000060 <start>:
{
    80000060:	1141                	addi	sp,sp,-16
    80000062:	e406                	sd	ra,8(sp)
    80000064:	e022                	sd	s0,0(sp)
    80000066:	0800                	addi	s0,sp,16
  asm volatile("csrr %0, mstatus" : "=r" (x) );
    80000068:	300027f3          	csrr	a5,mstatus
  x &= ~MSTATUS_MPP_MASK;
    8000006c:	7779                	lui	a4,0xffffe
    8000006e:	7ff70713          	addi	a4,a4,2047 # ffffffffffffe7ff <end+0xffffffff7ffdd6bf>
    80000072:	8ff9                	and	a5,a5,a4
  x |= MSTATUS_MPP_S;
    80000074:	6705                	lui	a4,0x1
    80000076:	80070713          	addi	a4,a4,-2048 # 800 <_entry-0x7ffff800>
    8000007a:	8fd9                	or	a5,a5,a4
  asm volatile("csrw mstatus, %0" : : "r" (x));
    8000007c:	30079073          	csrw	mstatus,a5
  asm volatile("csrw mepc, %0" : : "r" (x));
    80000080:	00001797          	auipc	a5,0x1
    80000084:	de278793          	addi	a5,a5,-542 # 80000e62 <main>
    80000088:	34179073          	csrw	mepc,a5
  asm volatile("csrw satp, %0" : : "r" (x));
    8000008c:	4781                	li	a5,0
    8000008e:	18079073          	csrw	satp,a5
  asm volatile("csrw medeleg, %0" : : "r" (x));
    80000092:	67c1                	lui	a5,0x10
    80000094:	17fd                	addi	a5,a5,-1 # ffff <_entry-0x7fff0001>
    80000096:	30279073          	csrw	medeleg,a5
  asm volatile("csrw mideleg, %0" : : "r" (x));
    8000009a:	30379073          	csrw	mideleg,a5
  asm volatile("csrr %0, sie" : "=r" (x) );
    8000009e:	104027f3          	csrr	a5,sie
  w_sie(r_sie() | SIE_SEIE | SIE_STIE | SIE_SSIE);
    800000a2:	2227e793          	ori	a5,a5,546
  asm volatile("csrw sie, %0" : : "r" (x));
    800000a6:	10479073          	csrw	sie,a5
  asm volatile("csrw pmpaddr0, %0" : : "r" (x));
    800000aa:	57fd                	li	a5,-1
    800000ac:	83a9                	srli	a5,a5,0xa
    800000ae:	3b079073          	csrw	pmpaddr0,a5
  asm volatile("csrw pmpcfg0, %0" : : "r" (x));
    800000b2:	47bd                	li	a5,15
    800000b4:	3a079073          	csrw	pmpcfg0,a5
  timerinit();
    800000b8:	f65ff0ef          	jal	8000001c <timerinit>
  asm volatile("csrr %0, mhartid" : "=r" (x) );
    800000bc:	f14027f3          	csrr	a5,mhartid
  w_tp(id);
    800000c0:	2781                	sext.w	a5,a5
}

static inline void 
w_tp(uint64 x)
{
  asm volatile("mv tp, %0" : : "r" (x));
    800000c2:	823e                	mv	tp,a5
  asm volatile("mret");
    800000c4:	30200073          	mret
}
    800000c8:	60a2                	ld	ra,8(sp)
    800000ca:	6402                	ld	s0,0(sp)
    800000cc:	0141                	addi	sp,sp,16
    800000ce:	8082                	ret

00000000800000d0 <consolewrite>:
//
// user write()s to the console go here.
//
int
consolewrite(int user_src, uint64 src, int n)
{
    800000d0:	715d                	addi	sp,sp,-80
    800000d2:	e486                	sd	ra,72(sp)
    800000d4:	e0a2                	sd	s0,64(sp)
    800000d6:	f84a                	sd	s2,48(sp)
    800000d8:	0880                	addi	s0,sp,80
  int i;

  for(i = 0; i < n; i++){
    800000da:	04c05263          	blez	a2,8000011e <consolewrite+0x4e>
    800000de:	fc26                	sd	s1,56(sp)
    800000e0:	f44e                	sd	s3,40(sp)
    800000e2:	f052                	sd	s4,32(sp)
    800000e4:	ec56                	sd	s5,24(sp)
    800000e6:	8a2a                	mv	s4,a0
    800000e8:	84ae                	mv	s1,a1
    800000ea:	89b2                	mv	s3,a2
    800000ec:	4901                	li	s2,0
    char c;
    if(either_copyin(&c, user_src, src+i, 1) == -1)
    800000ee:	5afd                	li	s5,-1
    800000f0:	4685                	li	a3,1
    800000f2:	8626                	mv	a2,s1
    800000f4:	85d2                	mv	a1,s4
    800000f6:	fbf40513          	addi	a0,s0,-65
    800000fa:	6e5010ef          	jal	80001fde <either_copyin>
    800000fe:	03550263          	beq	a0,s5,80000122 <consolewrite+0x52>
      break;
    uartputc(c);
    80000102:	fbf44503          	lbu	a0,-65(s0)
    80000106:	035000ef          	jal	8000093a <uartputc>
  for(i = 0; i < n; i++){
    8000010a:	2905                	addiw	s2,s2,1
    8000010c:	0485                	addi	s1,s1,1
    8000010e:	ff2991e3          	bne	s3,s2,800000f0 <consolewrite+0x20>
    80000112:	894e                	mv	s2,s3
    80000114:	74e2                	ld	s1,56(sp)
    80000116:	79a2                	ld	s3,40(sp)
    80000118:	7a02                	ld	s4,32(sp)
    8000011a:	6ae2                	ld	s5,24(sp)
    8000011c:	a039                	j	8000012a <consolewrite+0x5a>
    8000011e:	4901                	li	s2,0
    80000120:	a029                	j	8000012a <consolewrite+0x5a>
    80000122:	74e2                	ld	s1,56(sp)
    80000124:	79a2                	ld	s3,40(sp)
    80000126:	7a02                	ld	s4,32(sp)
    80000128:	6ae2                	ld	s5,24(sp)
  }

  return i;
}
    8000012a:	854a                	mv	a0,s2
    8000012c:	60a6                	ld	ra,72(sp)
    8000012e:	6406                	ld	s0,64(sp)
    80000130:	7942                	ld	s2,48(sp)
    80000132:	6161                	addi	sp,sp,80
    80000134:	8082                	ret

0000000080000136 <consoleread>:
// user_dist indicates whether dst is a user
// or kernel address.
//
int
consoleread(int user_dst, uint64 dst, int n)
{
    80000136:	711d                	addi	sp,sp,-96
    80000138:	ec86                	sd	ra,88(sp)
    8000013a:	e8a2                	sd	s0,80(sp)
    8000013c:	e4a6                	sd	s1,72(sp)
    8000013e:	e0ca                	sd	s2,64(sp)
    80000140:	fc4e                	sd	s3,56(sp)
    80000142:	f852                	sd	s4,48(sp)
    80000144:	f456                	sd	s5,40(sp)
    80000146:	f05a                	sd	s6,32(sp)
    80000148:	1080                	addi	s0,sp,96
    8000014a:	8aaa                	mv	s5,a0
    8000014c:	8a2e                	mv	s4,a1
    8000014e:	89b2                	mv	s3,a2
  uint target;
  int c;
  char cbuf;

  target = n;
    80000150:	00060b1b          	sext.w	s6,a2
  acquire(&cons.lock);
    80000154:	00010517          	auipc	a0,0x10
    80000158:	83c50513          	addi	a0,a0,-1988 # 8000f990 <cons>
    8000015c:	299000ef          	jal	80000bf4 <acquire>
  while(n > 0){
    // wait until interrupt handler has put some
    // input into cons.buffer.
    while(cons.r == cons.w){
    80000160:	00010497          	auipc	s1,0x10
    80000164:	83048493          	addi	s1,s1,-2000 # 8000f990 <cons>
      if(killed(myproc())){
        release(&cons.lock);
        return -1;
      }
      sleep(&cons.r, &cons.lock);
    80000168:	00010917          	auipc	s2,0x10
    8000016c:	8c090913          	addi	s2,s2,-1856 # 8000fa28 <cons+0x98>
  while(n > 0){
    80000170:	0b305d63          	blez	s3,8000022a <consoleread+0xf4>
    while(cons.r == cons.w){
    80000174:	0984a783          	lw	a5,152(s1)
    80000178:	09c4a703          	lw	a4,156(s1)
    8000017c:	0af71263          	bne	a4,a5,80000220 <consoleread+0xea>
      if(killed(myproc())){
    80000180:	772010ef          	jal	800018f2 <myproc>
    80000184:	4ed010ef          	jal	80001e70 <killed>
    80000188:	e12d                	bnez	a0,800001ea <consoleread+0xb4>
      sleep(&cons.r, &cons.lock);
    8000018a:	85a6                	mv	a1,s1
    8000018c:	854a                	mv	a0,s2
    8000018e:	34d010ef          	jal	80001cda <sleep>
    while(cons.r == cons.w){
    80000192:	0984a783          	lw	a5,152(s1)
    80000196:	09c4a703          	lw	a4,156(s1)
    8000019a:	fef703e3          	beq	a4,a5,80000180 <consoleread+0x4a>
    8000019e:	ec5e                	sd	s7,24(sp)
    }

    c = cons.buf[cons.r++ % INPUT_BUF_SIZE];
    800001a0:	0000f717          	auipc	a4,0xf
    800001a4:	7f070713          	addi	a4,a4,2032 # 8000f990 <cons>
    800001a8:	0017869b          	addiw	a3,a5,1
    800001ac:	08d72c23          	sw	a3,152(a4)
    800001b0:	07f7f693          	andi	a3,a5,127
    800001b4:	9736                	add	a4,a4,a3
    800001b6:	01874703          	lbu	a4,24(a4)
    800001ba:	00070b9b          	sext.w	s7,a4

    if(c == C('D')){  // end-of-file
    800001be:	4691                	li	a3,4
    800001c0:	04db8663          	beq	s7,a3,8000020c <consoleread+0xd6>
      }
      break;
    }

    // copy the input byte to the user-space buffer.
    cbuf = c;
    800001c4:	fae407a3          	sb	a4,-81(s0)
    if(either_copyout(user_dst, dst, &cbuf, 1) == -1)
    800001c8:	4685                	li	a3,1
    800001ca:	faf40613          	addi	a2,s0,-81
    800001ce:	85d2                	mv	a1,s4
    800001d0:	8556                	mv	a0,s5
    800001d2:	5c3010ef          	jal	80001f94 <either_copyout>
    800001d6:	57fd                	li	a5,-1
    800001d8:	04f50863          	beq	a0,a5,80000228 <consoleread+0xf2>
      break;

    dst++;
    800001dc:	0a05                	addi	s4,s4,1
    --n;
    800001de:	39fd                	addiw	s3,s3,-1

    if(c == '\n'){
    800001e0:	47a9                	li	a5,10
    800001e2:	04fb8d63          	beq	s7,a5,8000023c <consoleread+0x106>
    800001e6:	6be2                	ld	s7,24(sp)
    800001e8:	b761                	j	80000170 <consoleread+0x3a>
        release(&cons.lock);
    800001ea:	0000f517          	auipc	a0,0xf
    800001ee:	7a650513          	addi	a0,a0,1958 # 8000f990 <cons>
    800001f2:	29b000ef          	jal	80000c8c <release>
        return -1;
    800001f6:	557d                	li	a0,-1
    }
  }
  release(&cons.lock);

  return target - n;
}
    800001f8:	60e6                	ld	ra,88(sp)
    800001fa:	6446                	ld	s0,80(sp)
    800001fc:	64a6                	ld	s1,72(sp)
    800001fe:	6906                	ld	s2,64(sp)
    80000200:	79e2                	ld	s3,56(sp)
    80000202:	7a42                	ld	s4,48(sp)
    80000204:	7aa2                	ld	s5,40(sp)
    80000206:	7b02                	ld	s6,32(sp)
    80000208:	6125                	addi	sp,sp,96
    8000020a:	8082                	ret
      if(n < target){
    8000020c:	0009871b          	sext.w	a4,s3
    80000210:	01677a63          	bgeu	a4,s6,80000224 <consoleread+0xee>
        cons.r--;
    80000214:	00010717          	auipc	a4,0x10
    80000218:	80f72a23          	sw	a5,-2028(a4) # 8000fa28 <cons+0x98>
    8000021c:	6be2                	ld	s7,24(sp)
    8000021e:	a031                	j	8000022a <consoleread+0xf4>
    80000220:	ec5e                	sd	s7,24(sp)
    80000222:	bfbd                	j	800001a0 <consoleread+0x6a>
    80000224:	6be2                	ld	s7,24(sp)
    80000226:	a011                	j	8000022a <consoleread+0xf4>
    80000228:	6be2                	ld	s7,24(sp)
  release(&cons.lock);
    8000022a:	0000f517          	auipc	a0,0xf
    8000022e:	76650513          	addi	a0,a0,1894 # 8000f990 <cons>
    80000232:	25b000ef          	jal	80000c8c <release>
  return target - n;
    80000236:	413b053b          	subw	a0,s6,s3
    8000023a:	bf7d                	j	800001f8 <consoleread+0xc2>
    8000023c:	6be2                	ld	s7,24(sp)
    8000023e:	b7f5                	j	8000022a <consoleread+0xf4>

0000000080000240 <consputc>:
{
    80000240:	1141                	addi	sp,sp,-16
    80000242:	e406                	sd	ra,8(sp)
    80000244:	e022                	sd	s0,0(sp)
    80000246:	0800                	addi	s0,sp,16
  if(c == BACKSPACE){
    80000248:	10000793          	li	a5,256
    8000024c:	00f50863          	beq	a0,a5,8000025c <consputc+0x1c>
    uartputc_sync(c);
    80000250:	604000ef          	jal	80000854 <uartputc_sync>
}
    80000254:	60a2                	ld	ra,8(sp)
    80000256:	6402                	ld	s0,0(sp)
    80000258:	0141                	addi	sp,sp,16
    8000025a:	8082                	ret
    uartputc_sync('\b'); uartputc_sync(' '); uartputc_sync('\b');
    8000025c:	4521                	li	a0,8
    8000025e:	5f6000ef          	jal	80000854 <uartputc_sync>
    80000262:	02000513          	li	a0,32
    80000266:	5ee000ef          	jal	80000854 <uartputc_sync>
    8000026a:	4521                	li	a0,8
    8000026c:	5e8000ef          	jal	80000854 <uartputc_sync>
    80000270:	b7d5                	j	80000254 <consputc+0x14>

0000000080000272 <consoleintr>:
// do erase/kill processing, append to cons.buf,
// wake up consoleread() if a whole line has arrived.
//
void
consoleintr(int c)
{
    80000272:	1101                	addi	sp,sp,-32
    80000274:	ec06                	sd	ra,24(sp)
    80000276:	e822                	sd	s0,16(sp)
    80000278:	e426                	sd	s1,8(sp)
    8000027a:	1000                	addi	s0,sp,32
    8000027c:	84aa                	mv	s1,a0
  acquire(&cons.lock);
    8000027e:	0000f517          	auipc	a0,0xf
    80000282:	71250513          	addi	a0,a0,1810 # 8000f990 <cons>
    80000286:	16f000ef          	jal	80000bf4 <acquire>

  switch(c){
    8000028a:	47d5                	li	a5,21
    8000028c:	08f48f63          	beq	s1,a5,8000032a <consoleintr+0xb8>
    80000290:	0297c563          	blt	a5,s1,800002ba <consoleintr+0x48>
    80000294:	47a1                	li	a5,8
    80000296:	0ef48463          	beq	s1,a5,8000037e <consoleintr+0x10c>
    8000029a:	47c1                	li	a5,16
    8000029c:	10f49563          	bne	s1,a5,800003a6 <consoleintr+0x134>
  case C('P'):  // Print process list.
    procdump();
    800002a0:	589010ef          	jal	80002028 <procdump>
      }
    }
    break;
  }
  
  release(&cons.lock);
    800002a4:	0000f517          	auipc	a0,0xf
    800002a8:	6ec50513          	addi	a0,a0,1772 # 8000f990 <cons>
    800002ac:	1e1000ef          	jal	80000c8c <release>
}
    800002b0:	60e2                	ld	ra,24(sp)
    800002b2:	6442                	ld	s0,16(sp)
    800002b4:	64a2                	ld	s1,8(sp)
    800002b6:	6105                	addi	sp,sp,32
    800002b8:	8082                	ret
  switch(c){
    800002ba:	07f00793          	li	a5,127
    800002be:	0cf48063          	beq	s1,a5,8000037e <consoleintr+0x10c>
    if(c != 0 && cons.e-cons.r < INPUT_BUF_SIZE){
    800002c2:	0000f717          	auipc	a4,0xf
    800002c6:	6ce70713          	addi	a4,a4,1742 # 8000f990 <cons>
    800002ca:	0a072783          	lw	a5,160(a4)
    800002ce:	09872703          	lw	a4,152(a4)
    800002d2:	9f99                	subw	a5,a5,a4
    800002d4:	07f00713          	li	a4,127
    800002d8:	fcf766e3          	bltu	a4,a5,800002a4 <consoleintr+0x32>
      c = (c == '\r') ? '\n' : c;
    800002dc:	47b5                	li	a5,13
    800002de:	0cf48763          	beq	s1,a5,800003ac <consoleintr+0x13a>
      consputc(c);
    800002e2:	8526                	mv	a0,s1
    800002e4:	f5dff0ef          	jal	80000240 <consputc>
      cons.buf[cons.e++ % INPUT_BUF_SIZE] = c;
    800002e8:	0000f797          	auipc	a5,0xf
    800002ec:	6a878793          	addi	a5,a5,1704 # 8000f990 <cons>
    800002f0:	0a07a683          	lw	a3,160(a5)
    800002f4:	0016871b          	addiw	a4,a3,1
    800002f8:	0007061b          	sext.w	a2,a4
    800002fc:	0ae7a023          	sw	a4,160(a5)
    80000300:	07f6f693          	andi	a3,a3,127
    80000304:	97b6                	add	a5,a5,a3
    80000306:	00978c23          	sb	s1,24(a5)
      if(c == '\n' || c == C('D') || cons.e-cons.r == INPUT_BUF_SIZE){
    8000030a:	47a9                	li	a5,10
    8000030c:	0cf48563          	beq	s1,a5,800003d6 <consoleintr+0x164>
    80000310:	4791                	li	a5,4
    80000312:	0cf48263          	beq	s1,a5,800003d6 <consoleintr+0x164>
    80000316:	0000f797          	auipc	a5,0xf
    8000031a:	7127a783          	lw	a5,1810(a5) # 8000fa28 <cons+0x98>
    8000031e:	9f1d                	subw	a4,a4,a5
    80000320:	08000793          	li	a5,128
    80000324:	f8f710e3          	bne	a4,a5,800002a4 <consoleintr+0x32>
    80000328:	a07d                	j	800003d6 <consoleintr+0x164>
    8000032a:	e04a                	sd	s2,0(sp)
    while(cons.e != cons.w &&
    8000032c:	0000f717          	auipc	a4,0xf
    80000330:	66470713          	addi	a4,a4,1636 # 8000f990 <cons>
    80000334:	0a072783          	lw	a5,160(a4)
    80000338:	09c72703          	lw	a4,156(a4)
          cons.buf[(cons.e-1) % INPUT_BUF_SIZE] != '\n'){
    8000033c:	0000f497          	auipc	s1,0xf
    80000340:	65448493          	addi	s1,s1,1620 # 8000f990 <cons>
    while(cons.e != cons.w &&
    80000344:	4929                	li	s2,10
    80000346:	02f70863          	beq	a4,a5,80000376 <consoleintr+0x104>
          cons.buf[(cons.e-1) % INPUT_BUF_SIZE] != '\n'){
    8000034a:	37fd                	addiw	a5,a5,-1
    8000034c:	07f7f713          	andi	a4,a5,127
    80000350:	9726                	add	a4,a4,s1
    while(cons.e != cons.w &&
    80000352:	01874703          	lbu	a4,24(a4)
    80000356:	03270263          	beq	a4,s2,8000037a <consoleintr+0x108>
      cons.e--;
    8000035a:	0af4a023          	sw	a5,160(s1)
      consputc(BACKSPACE);
    8000035e:	10000513          	li	a0,256
    80000362:	edfff0ef          	jal	80000240 <consputc>
    while(cons.e != cons.w &&
    80000366:	0a04a783          	lw	a5,160(s1)
    8000036a:	09c4a703          	lw	a4,156(s1)
    8000036e:	fcf71ee3          	bne	a4,a5,8000034a <consoleintr+0xd8>
    80000372:	6902                	ld	s2,0(sp)
    80000374:	bf05                	j	800002a4 <consoleintr+0x32>
    80000376:	6902                	ld	s2,0(sp)
    80000378:	b735                	j	800002a4 <consoleintr+0x32>
    8000037a:	6902                	ld	s2,0(sp)
    8000037c:	b725                	j	800002a4 <consoleintr+0x32>
    if(cons.e != cons.w){
    8000037e:	0000f717          	auipc	a4,0xf
    80000382:	61270713          	addi	a4,a4,1554 # 8000f990 <cons>
    80000386:	0a072783          	lw	a5,160(a4)
    8000038a:	09c72703          	lw	a4,156(a4)
    8000038e:	f0f70be3          	beq	a4,a5,800002a4 <consoleintr+0x32>
      cons.e--;
    80000392:	37fd                	addiw	a5,a5,-1
    80000394:	0000f717          	auipc	a4,0xf
    80000398:	68f72e23          	sw	a5,1692(a4) # 8000fa30 <cons+0xa0>
      consputc(BACKSPACE);
    8000039c:	10000513          	li	a0,256
    800003a0:	ea1ff0ef          	jal	80000240 <consputc>
    800003a4:	b701                	j	800002a4 <consoleintr+0x32>
    if(c != 0 && cons.e-cons.r < INPUT_BUF_SIZE){
    800003a6:	ee048fe3          	beqz	s1,800002a4 <consoleintr+0x32>
    800003aa:	bf21                	j	800002c2 <consoleintr+0x50>
      consputc(c);
    800003ac:	4529                	li	a0,10
    800003ae:	e93ff0ef          	jal	80000240 <consputc>
      cons.buf[cons.e++ % INPUT_BUF_SIZE] = c;
    800003b2:	0000f797          	auipc	a5,0xf
    800003b6:	5de78793          	addi	a5,a5,1502 # 8000f990 <cons>
    800003ba:	0a07a703          	lw	a4,160(a5)
    800003be:	0017069b          	addiw	a3,a4,1
    800003c2:	0006861b          	sext.w	a2,a3
    800003c6:	0ad7a023          	sw	a3,160(a5)
    800003ca:	07f77713          	andi	a4,a4,127
    800003ce:	97ba                	add	a5,a5,a4
    800003d0:	4729                	li	a4,10
    800003d2:	00e78c23          	sb	a4,24(a5)
        cons.w = cons.e;
    800003d6:	0000f797          	auipc	a5,0xf
    800003da:	64c7ab23          	sw	a2,1622(a5) # 8000fa2c <cons+0x9c>
        wakeup(&cons.r);
    800003de:	0000f517          	auipc	a0,0xf
    800003e2:	64a50513          	addi	a0,a0,1610 # 8000fa28 <cons+0x98>
    800003e6:	141010ef          	jal	80001d26 <wakeup>
    800003ea:	bd6d                	j	800002a4 <consoleintr+0x32>

00000000800003ec <consoleinit>:

void
consoleinit(void)
{
    800003ec:	1141                	addi	sp,sp,-16
    800003ee:	e406                	sd	ra,8(sp)
    800003f0:	e022                	sd	s0,0(sp)
    800003f2:	0800                	addi	s0,sp,16
  initlock(&cons.lock, "cons");
    800003f4:	00007597          	auipc	a1,0x7
    800003f8:	c0c58593          	addi	a1,a1,-1012 # 80007000 <etext>
    800003fc:	0000f517          	auipc	a0,0xf
    80000400:	59450513          	addi	a0,a0,1428 # 8000f990 <cons>
    80000404:	770000ef          	jal	80000b74 <initlock>

  uartinit();
    80000408:	3f4000ef          	jal	800007fc <uartinit>

  // connect read and write system calls
  // to consoleread and consolewrite.
  devsw[CONSOLE].read = consoleread;
    8000040c:	00020797          	auipc	a5,0x20
    80000410:	b9c78793          	addi	a5,a5,-1124 # 8001ffa8 <devsw>
    80000414:	00000717          	auipc	a4,0x0
    80000418:	d2270713          	addi	a4,a4,-734 # 80000136 <consoleread>
    8000041c:	eb98                	sd	a4,16(a5)
  devsw[CONSOLE].write = consolewrite;
    8000041e:	00000717          	auipc	a4,0x0
    80000422:	cb270713          	addi	a4,a4,-846 # 800000d0 <consolewrite>
    80000426:	ef98                	sd	a4,24(a5)
    80000428:	60a2                	ld	ra,8(sp)
    8000042a:	6402                	ld	s0,0(sp)
    8000042c:	0141                	addi	sp,sp,16
    8000042e:	8082                	ret

0000000080000430 <printint>:

static char digits[] = "0123456789abcdef";

static void
printint(long long xx, int base, int sign)
{
    80000430:	7179                	addi	sp,sp,-48
    80000432:	f406                	sd	ra,40(sp)
    80000434:	f022                	sd	s0,32(sp)
    80000436:	1800                	addi	s0,sp,48
  char buf[16];
  int i;
  unsigned long long x;

  if(sign && (sign = (xx < 0)))
    80000438:	c219                	beqz	a2,8000043e <printint+0xe>
    8000043a:	08054063          	bltz	a0,800004ba <printint+0x8a>
    x = -xx;
  else
    x = xx;
    8000043e:	4881                	li	a7,0
    80000440:	fd040693          	addi	a3,s0,-48

  i = 0;
    80000444:	4781                	li	a5,0
  do {
    buf[i++] = digits[x % base];
    80000446:	00007617          	auipc	a2,0x7
    8000044a:	3aa60613          	addi	a2,a2,938 # 800077f0 <digits>
    8000044e:	883e                	mv	a6,a5
    80000450:	2785                	addiw	a5,a5,1
    80000452:	02b57733          	remu	a4,a0,a1
    80000456:	9732                	add	a4,a4,a2
    80000458:	00074703          	lbu	a4,0(a4)
    8000045c:	00e68023          	sb	a4,0(a3)
  } while((x /= base) != 0);
    80000460:	872a                	mv	a4,a0
    80000462:	02b55533          	divu	a0,a0,a1
    80000466:	0685                	addi	a3,a3,1
    80000468:	feb773e3          	bgeu	a4,a1,8000044e <printint+0x1e>

  if(sign)
    8000046c:	00088a63          	beqz	a7,80000480 <printint+0x50>
    buf[i++] = '-';
    80000470:	1781                	addi	a5,a5,-32
    80000472:	97a2                	add	a5,a5,s0
    80000474:	02d00713          	li	a4,45
    80000478:	fee78823          	sb	a4,-16(a5)
    8000047c:	0028079b          	addiw	a5,a6,2

  while(--i >= 0)
    80000480:	02f05963          	blez	a5,800004b2 <printint+0x82>
    80000484:	ec26                	sd	s1,24(sp)
    80000486:	e84a                	sd	s2,16(sp)
    80000488:	fd040713          	addi	a4,s0,-48
    8000048c:	00f704b3          	add	s1,a4,a5
    80000490:	fff70913          	addi	s2,a4,-1
    80000494:	993e                	add	s2,s2,a5
    80000496:	37fd                	addiw	a5,a5,-1
    80000498:	1782                	slli	a5,a5,0x20
    8000049a:	9381                	srli	a5,a5,0x20
    8000049c:	40f90933          	sub	s2,s2,a5
    consputc(buf[i]);
    800004a0:	fff4c503          	lbu	a0,-1(s1)
    800004a4:	d9dff0ef          	jal	80000240 <consputc>
  while(--i >= 0)
    800004a8:	14fd                	addi	s1,s1,-1
    800004aa:	ff249be3          	bne	s1,s2,800004a0 <printint+0x70>
    800004ae:	64e2                	ld	s1,24(sp)
    800004b0:	6942                	ld	s2,16(sp)
}
    800004b2:	70a2                	ld	ra,40(sp)
    800004b4:	7402                	ld	s0,32(sp)
    800004b6:	6145                	addi	sp,sp,48
    800004b8:	8082                	ret
    x = -xx;
    800004ba:	40a00533          	neg	a0,a0
  if(sign && (sign = (xx < 0)))
    800004be:	4885                	li	a7,1
    x = -xx;
    800004c0:	b741                	j	80000440 <printint+0x10>

00000000800004c2 <printf>:
}

// Print to the console.
int
printf(char *fmt, ...)
{
    800004c2:	7155                	addi	sp,sp,-208
    800004c4:	e506                	sd	ra,136(sp)
    800004c6:	e122                	sd	s0,128(sp)
    800004c8:	f0d2                	sd	s4,96(sp)
    800004ca:	0900                	addi	s0,sp,144
    800004cc:	8a2a                	mv	s4,a0
    800004ce:	e40c                	sd	a1,8(s0)
    800004d0:	e810                	sd	a2,16(s0)
    800004d2:	ec14                	sd	a3,24(s0)
    800004d4:	f018                	sd	a4,32(s0)
    800004d6:	f41c                	sd	a5,40(s0)
    800004d8:	03043823          	sd	a6,48(s0)
    800004dc:	03143c23          	sd	a7,56(s0)
  va_list ap;
  int i, cx, c0, c1, c2, locking;
  char *s;

  locking = pr.locking;
    800004e0:	0000f797          	auipc	a5,0xf
    800004e4:	5707a783          	lw	a5,1392(a5) # 8000fa50 <pr+0x18>
    800004e8:	f6f43c23          	sd	a5,-136(s0)
  if(locking)
    800004ec:	e3a1                	bnez	a5,8000052c <printf+0x6a>
    acquire(&pr.lock);

  va_start(ap, fmt);
    800004ee:	00840793          	addi	a5,s0,8
    800004f2:	f8f43423          	sd	a5,-120(s0)
  for(i = 0; (cx = fmt[i] & 0xff) != 0; i++){
    800004f6:	00054503          	lbu	a0,0(a0)
    800004fa:	26050763          	beqz	a0,80000768 <printf+0x2a6>
    800004fe:	fca6                	sd	s1,120(sp)
    80000500:	f8ca                	sd	s2,112(sp)
    80000502:	f4ce                	sd	s3,104(sp)
    80000504:	ecd6                	sd	s5,88(sp)
    80000506:	e8da                	sd	s6,80(sp)
    80000508:	e0e2                	sd	s8,64(sp)
    8000050a:	fc66                	sd	s9,56(sp)
    8000050c:	f86a                	sd	s10,48(sp)
    8000050e:	f46e                	sd	s11,40(sp)
    80000510:	4981                	li	s3,0
    if(cx != '%'){
    80000512:	02500a93          	li	s5,37
    i++;
    c0 = fmt[i+0] & 0xff;
    c1 = c2 = 0;
    if(c0) c1 = fmt[i+1] & 0xff;
    if(c1) c2 = fmt[i+2] & 0xff;
    if(c0 == 'd'){
    80000516:	06400b13          	li	s6,100
      printint(va_arg(ap, int), 10, 1);
    } else if(c0 == 'l' && c1 == 'd'){
    8000051a:	06c00c13          	li	s8,108
      printint(va_arg(ap, uint64), 10, 1);
      i += 1;
    } else if(c0 == 'l' && c1 == 'l' && c2 == 'd'){
      printint(va_arg(ap, uint64), 10, 1);
      i += 2;
    } else if(c0 == 'u'){
    8000051e:	07500c93          	li	s9,117
      printint(va_arg(ap, uint64), 10, 0);
      i += 1;
    } else if(c0 == 'l' && c1 == 'l' && c2 == 'u'){
      printint(va_arg(ap, uint64), 10, 0);
      i += 2;
    } else if(c0 == 'x'){
    80000522:	07800d13          	li	s10,120
      printint(va_arg(ap, uint64), 16, 0);
      i += 1;
    } else if(c0 == 'l' && c1 == 'l' && c2 == 'x'){
      printint(va_arg(ap, uint64), 16, 0);
      i += 2;
    } else if(c0 == 'p'){
    80000526:	07000d93          	li	s11,112
    8000052a:	a815                	j	8000055e <printf+0x9c>
    acquire(&pr.lock);
    8000052c:	0000f517          	auipc	a0,0xf
    80000530:	50c50513          	addi	a0,a0,1292 # 8000fa38 <pr>
    80000534:	6c0000ef          	jal	80000bf4 <acquire>
  va_start(ap, fmt);
    80000538:	00840793          	addi	a5,s0,8
    8000053c:	f8f43423          	sd	a5,-120(s0)
  for(i = 0; (cx = fmt[i] & 0xff) != 0; i++){
    80000540:	000a4503          	lbu	a0,0(s4)
    80000544:	fd4d                	bnez	a0,800004fe <printf+0x3c>
    80000546:	a481                	j	80000786 <printf+0x2c4>
      consputc(cx);
    80000548:	cf9ff0ef          	jal	80000240 <consputc>
      continue;
    8000054c:	84ce                	mv	s1,s3
  for(i = 0; (cx = fmt[i] & 0xff) != 0; i++){
    8000054e:	0014899b          	addiw	s3,s1,1
    80000552:	013a07b3          	add	a5,s4,s3
    80000556:	0007c503          	lbu	a0,0(a5)
    8000055a:	1e050b63          	beqz	a0,80000750 <printf+0x28e>
    if(cx != '%'){
    8000055e:	ff5515e3          	bne	a0,s5,80000548 <printf+0x86>
    i++;
    80000562:	0019849b          	addiw	s1,s3,1
    c0 = fmt[i+0] & 0xff;
    80000566:	009a07b3          	add	a5,s4,s1
    8000056a:	0007c903          	lbu	s2,0(a5)
    if(c0) c1 = fmt[i+1] & 0xff;
    8000056e:	1e090163          	beqz	s2,80000750 <printf+0x28e>
    80000572:	0017c783          	lbu	a5,1(a5)
    c1 = c2 = 0;
    80000576:	86be                	mv	a3,a5
    if(c1) c2 = fmt[i+2] & 0xff;
    80000578:	c789                	beqz	a5,80000582 <printf+0xc0>
    8000057a:	009a0733          	add	a4,s4,s1
    8000057e:	00274683          	lbu	a3,2(a4)
    if(c0 == 'd'){
    80000582:	03690763          	beq	s2,s6,800005b0 <printf+0xee>
    } else if(c0 == 'l' && c1 == 'd'){
    80000586:	05890163          	beq	s2,s8,800005c8 <printf+0x106>
    } else if(c0 == 'u'){
    8000058a:	0d990b63          	beq	s2,s9,80000660 <printf+0x19e>
    } else if(c0 == 'x'){
    8000058e:	13a90163          	beq	s2,s10,800006b0 <printf+0x1ee>
    } else if(c0 == 'p'){
    80000592:	13b90b63          	beq	s2,s11,800006c8 <printf+0x206>
      printptr(va_arg(ap, uint64));
    } else if(c0 == 's'){
    80000596:	07300793          	li	a5,115
    8000059a:	16f90a63          	beq	s2,a5,8000070e <printf+0x24c>
      if((s = va_arg(ap, char*)) == 0)
        s = "(null)";
      for(; *s; s++)
        consputc(*s);
    } else if(c0 == '%'){
    8000059e:	1b590463          	beq	s2,s5,80000746 <printf+0x284>
      consputc('%');
    } else if(c0 == 0){
      break;
    } else {
      // Print unknown % sequence to draw attention.
      consputc('%');
    800005a2:	8556                	mv	a0,s5
    800005a4:	c9dff0ef          	jal	80000240 <consputc>
      consputc(c0);
    800005a8:	854a                	mv	a0,s2
    800005aa:	c97ff0ef          	jal	80000240 <consputc>
    800005ae:	b745                	j	8000054e <printf+0x8c>
      printint(va_arg(ap, int), 10, 1);
    800005b0:	f8843783          	ld	a5,-120(s0)
    800005b4:	00878713          	addi	a4,a5,8
    800005b8:	f8e43423          	sd	a4,-120(s0)
    800005bc:	4605                	li	a2,1
    800005be:	45a9                	li	a1,10
    800005c0:	4388                	lw	a0,0(a5)
    800005c2:	e6fff0ef          	jal	80000430 <printint>
    800005c6:	b761                	j	8000054e <printf+0x8c>
    } else if(c0 == 'l' && c1 == 'd'){
    800005c8:	03678663          	beq	a5,s6,800005f4 <printf+0x132>
    } else if(c0 == 'l' && c1 == 'l' && c2 == 'd'){
    800005cc:	05878263          	beq	a5,s8,80000610 <printf+0x14e>
    } else if(c0 == 'l' && c1 == 'u'){
    800005d0:	0b978463          	beq	a5,s9,80000678 <printf+0x1b6>
    } else if(c0 == 'l' && c1 == 'x'){
    800005d4:	fda797e3          	bne	a5,s10,800005a2 <printf+0xe0>
      printint(va_arg(ap, uint64), 16, 0);
    800005d8:	f8843783          	ld	a5,-120(s0)
    800005dc:	00878713          	addi	a4,a5,8
    800005e0:	f8e43423          	sd	a4,-120(s0)
    800005e4:	4601                	li	a2,0
    800005e6:	45c1                	li	a1,16
    800005e8:	6388                	ld	a0,0(a5)
    800005ea:	e47ff0ef          	jal	80000430 <printint>
      i += 1;
    800005ee:	0029849b          	addiw	s1,s3,2
    800005f2:	bfb1                	j	8000054e <printf+0x8c>
      printint(va_arg(ap, uint64), 10, 1);
    800005f4:	f8843783          	ld	a5,-120(s0)
    800005f8:	00878713          	addi	a4,a5,8
    800005fc:	f8e43423          	sd	a4,-120(s0)
    80000600:	4605                	li	a2,1
    80000602:	45a9                	li	a1,10
    80000604:	6388                	ld	a0,0(a5)
    80000606:	e2bff0ef          	jal	80000430 <printint>
      i += 1;
    8000060a:	0029849b          	addiw	s1,s3,2
    8000060e:	b781                	j	8000054e <printf+0x8c>
    } else if(c0 == 'l' && c1 == 'l' && c2 == 'd'){
    80000610:	06400793          	li	a5,100
    80000614:	02f68863          	beq	a3,a5,80000644 <printf+0x182>
    } else if(c0 == 'l' && c1 == 'l' && c2 == 'u'){
    80000618:	07500793          	li	a5,117
    8000061c:	06f68c63          	beq	a3,a5,80000694 <printf+0x1d2>
    } else if(c0 == 'l' && c1 == 'l' && c2 == 'x'){
    80000620:	07800793          	li	a5,120
    80000624:	f6f69fe3          	bne	a3,a5,800005a2 <printf+0xe0>
      printint(va_arg(ap, uint64), 16, 0);
    80000628:	f8843783          	ld	a5,-120(s0)
    8000062c:	00878713          	addi	a4,a5,8
    80000630:	f8e43423          	sd	a4,-120(s0)
    80000634:	4601                	li	a2,0
    80000636:	45c1                	li	a1,16
    80000638:	6388                	ld	a0,0(a5)
    8000063a:	df7ff0ef          	jal	80000430 <printint>
      i += 2;
    8000063e:	0039849b          	addiw	s1,s3,3
    80000642:	b731                	j	8000054e <printf+0x8c>
      printint(va_arg(ap, uint64), 10, 1);
    80000644:	f8843783          	ld	a5,-120(s0)
    80000648:	00878713          	addi	a4,a5,8
    8000064c:	f8e43423          	sd	a4,-120(s0)
    80000650:	4605                	li	a2,1
    80000652:	45a9                	li	a1,10
    80000654:	6388                	ld	a0,0(a5)
    80000656:	ddbff0ef          	jal	80000430 <printint>
      i += 2;
    8000065a:	0039849b          	addiw	s1,s3,3
    8000065e:	bdc5                	j	8000054e <printf+0x8c>
      printint(va_arg(ap, int), 10, 0);
    80000660:	f8843783          	ld	a5,-120(s0)
    80000664:	00878713          	addi	a4,a5,8
    80000668:	f8e43423          	sd	a4,-120(s0)
    8000066c:	4601                	li	a2,0
    8000066e:	45a9                	li	a1,10
    80000670:	4388                	lw	a0,0(a5)
    80000672:	dbfff0ef          	jal	80000430 <printint>
    80000676:	bde1                	j	8000054e <printf+0x8c>
      printint(va_arg(ap, uint64), 10, 0);
    80000678:	f8843783          	ld	a5,-120(s0)
    8000067c:	00878713          	addi	a4,a5,8
    80000680:	f8e43423          	sd	a4,-120(s0)
    80000684:	4601                	li	a2,0
    80000686:	45a9                	li	a1,10
    80000688:	6388                	ld	a0,0(a5)
    8000068a:	da7ff0ef          	jal	80000430 <printint>
      i += 1;
    8000068e:	0029849b          	addiw	s1,s3,2
    80000692:	bd75                	j	8000054e <printf+0x8c>
      printint(va_arg(ap, uint64), 10, 0);
    80000694:	f8843783          	ld	a5,-120(s0)
    80000698:	00878713          	addi	a4,a5,8
    8000069c:	f8e43423          	sd	a4,-120(s0)
    800006a0:	4601                	li	a2,0
    800006a2:	45a9                	li	a1,10
    800006a4:	6388                	ld	a0,0(a5)
    800006a6:	d8bff0ef          	jal	80000430 <printint>
      i += 2;
    800006aa:	0039849b          	addiw	s1,s3,3
    800006ae:	b545                	j	8000054e <printf+0x8c>
      printint(va_arg(ap, int), 16, 0);
    800006b0:	f8843783          	ld	a5,-120(s0)
    800006b4:	00878713          	addi	a4,a5,8
    800006b8:	f8e43423          	sd	a4,-120(s0)
    800006bc:	4601                	li	a2,0
    800006be:	45c1                	li	a1,16
    800006c0:	4388                	lw	a0,0(a5)
    800006c2:	d6fff0ef          	jal	80000430 <printint>
    800006c6:	b561                	j	8000054e <printf+0x8c>
    800006c8:	e4de                	sd	s7,72(sp)
      printptr(va_arg(ap, uint64));
    800006ca:	f8843783          	ld	a5,-120(s0)
    800006ce:	00878713          	addi	a4,a5,8
    800006d2:	f8e43423          	sd	a4,-120(s0)
    800006d6:	0007b983          	ld	s3,0(a5)
  consputc('0');
    800006da:	03000513          	li	a0,48
    800006de:	b63ff0ef          	jal	80000240 <consputc>
  consputc('x');
    800006e2:	07800513          	li	a0,120
    800006e6:	b5bff0ef          	jal	80000240 <consputc>
    800006ea:	4941                	li	s2,16
    consputc(digits[x >> (sizeof(uint64) * 8 - 4)]);
    800006ec:	00007b97          	auipc	s7,0x7
    800006f0:	104b8b93          	addi	s7,s7,260 # 800077f0 <digits>
    800006f4:	03c9d793          	srli	a5,s3,0x3c
    800006f8:	97de                	add	a5,a5,s7
    800006fa:	0007c503          	lbu	a0,0(a5)
    800006fe:	b43ff0ef          	jal	80000240 <consputc>
  for (i = 0; i < (sizeof(uint64) * 2); i++, x <<= 4)
    80000702:	0992                	slli	s3,s3,0x4
    80000704:	397d                	addiw	s2,s2,-1
    80000706:	fe0917e3          	bnez	s2,800006f4 <printf+0x232>
    8000070a:	6ba6                	ld	s7,72(sp)
    8000070c:	b589                	j	8000054e <printf+0x8c>
      if((s = va_arg(ap, char*)) == 0)
    8000070e:	f8843783          	ld	a5,-120(s0)
    80000712:	00878713          	addi	a4,a5,8
    80000716:	f8e43423          	sd	a4,-120(s0)
    8000071a:	0007b903          	ld	s2,0(a5)
    8000071e:	00090d63          	beqz	s2,80000738 <printf+0x276>
      for(; *s; s++)
    80000722:	00094503          	lbu	a0,0(s2)
    80000726:	e20504e3          	beqz	a0,8000054e <printf+0x8c>
        consputc(*s);
    8000072a:	b17ff0ef          	jal	80000240 <consputc>
      for(; *s; s++)
    8000072e:	0905                	addi	s2,s2,1
    80000730:	00094503          	lbu	a0,0(s2)
    80000734:	f97d                	bnez	a0,8000072a <printf+0x268>
    80000736:	bd21                	j	8000054e <printf+0x8c>
        s = "(null)";
    80000738:	00007917          	auipc	s2,0x7
    8000073c:	8d090913          	addi	s2,s2,-1840 # 80007008 <etext+0x8>
      for(; *s; s++)
    80000740:	02800513          	li	a0,40
    80000744:	b7dd                	j	8000072a <printf+0x268>
      consputc('%');
    80000746:	02500513          	li	a0,37
    8000074a:	af7ff0ef          	jal	80000240 <consputc>
    8000074e:	b501                	j	8000054e <printf+0x8c>
    }
#endif
  }
  va_end(ap);

  if(locking)
    80000750:	f7843783          	ld	a5,-136(s0)
    80000754:	e385                	bnez	a5,80000774 <printf+0x2b2>
    80000756:	74e6                	ld	s1,120(sp)
    80000758:	7946                	ld	s2,112(sp)
    8000075a:	79a6                	ld	s3,104(sp)
    8000075c:	6ae6                	ld	s5,88(sp)
    8000075e:	6b46                	ld	s6,80(sp)
    80000760:	6c06                	ld	s8,64(sp)
    80000762:	7ce2                	ld	s9,56(sp)
    80000764:	7d42                	ld	s10,48(sp)
    80000766:	7da2                	ld	s11,40(sp)
    release(&pr.lock);

  return 0;
}
    80000768:	4501                	li	a0,0
    8000076a:	60aa                	ld	ra,136(sp)
    8000076c:	640a                	ld	s0,128(sp)
    8000076e:	7a06                	ld	s4,96(sp)
    80000770:	6169                	addi	sp,sp,208
    80000772:	8082                	ret
    80000774:	74e6                	ld	s1,120(sp)
    80000776:	7946                	ld	s2,112(sp)
    80000778:	79a6                	ld	s3,104(sp)
    8000077a:	6ae6                	ld	s5,88(sp)
    8000077c:	6b46                	ld	s6,80(sp)
    8000077e:	6c06                	ld	s8,64(sp)
    80000780:	7ce2                	ld	s9,56(sp)
    80000782:	7d42                	ld	s10,48(sp)
    80000784:	7da2                	ld	s11,40(sp)
    release(&pr.lock);
    80000786:	0000f517          	auipc	a0,0xf
    8000078a:	2b250513          	addi	a0,a0,690 # 8000fa38 <pr>
    8000078e:	4fe000ef          	jal	80000c8c <release>
    80000792:	bfd9                	j	80000768 <printf+0x2a6>

0000000080000794 <panic>:

void
panic(char *s)
{
    80000794:	1101                	addi	sp,sp,-32
    80000796:	ec06                	sd	ra,24(sp)
    80000798:	e822                	sd	s0,16(sp)
    8000079a:	e426                	sd	s1,8(sp)
    8000079c:	1000                	addi	s0,sp,32
    8000079e:	84aa                	mv	s1,a0
  pr.locking = 0;
    800007a0:	0000f797          	auipc	a5,0xf
    800007a4:	2a07a823          	sw	zero,688(a5) # 8000fa50 <pr+0x18>
  printf("panic: ");
    800007a8:	00007517          	auipc	a0,0x7
    800007ac:	87050513          	addi	a0,a0,-1936 # 80007018 <etext+0x18>
    800007b0:	d13ff0ef          	jal	800004c2 <printf>
  printf("%s\n", s);
    800007b4:	85a6                	mv	a1,s1
    800007b6:	00007517          	auipc	a0,0x7
    800007ba:	86a50513          	addi	a0,a0,-1942 # 80007020 <etext+0x20>
    800007be:	d05ff0ef          	jal	800004c2 <printf>
  panicked = 1; // freeze uart output from other CPUs
    800007c2:	4785                	li	a5,1
    800007c4:	00007717          	auipc	a4,0x7
    800007c8:	18f72623          	sw	a5,396(a4) # 80007950 <panicked>
  for(;;)
    800007cc:	a001                	j	800007cc <panic+0x38>

00000000800007ce <printfinit>:
    ;
}

void
printfinit(void)
{
    800007ce:	1101                	addi	sp,sp,-32
    800007d0:	ec06                	sd	ra,24(sp)
    800007d2:	e822                	sd	s0,16(sp)
    800007d4:	e426                	sd	s1,8(sp)
    800007d6:	1000                	addi	s0,sp,32
  initlock(&pr.lock, "pr");
    800007d8:	0000f497          	auipc	s1,0xf
    800007dc:	26048493          	addi	s1,s1,608 # 8000fa38 <pr>
    800007e0:	00007597          	auipc	a1,0x7
    800007e4:	84858593          	addi	a1,a1,-1976 # 80007028 <etext+0x28>
    800007e8:	8526                	mv	a0,s1
    800007ea:	38a000ef          	jal	80000b74 <initlock>
  pr.locking = 1;
    800007ee:	4785                	li	a5,1
    800007f0:	cc9c                	sw	a5,24(s1)
}
    800007f2:	60e2                	ld	ra,24(sp)
    800007f4:	6442                	ld	s0,16(sp)
    800007f6:	64a2                	ld	s1,8(sp)
    800007f8:	6105                	addi	sp,sp,32
    800007fa:	8082                	ret

00000000800007fc <uartinit>:

void uartstart();

void
uartinit(void)
{
    800007fc:	1141                	addi	sp,sp,-16
    800007fe:	e406                	sd	ra,8(sp)
    80000800:	e022                	sd	s0,0(sp)
    80000802:	0800                	addi	s0,sp,16
  // disable interrupts.
  WriteReg(IER, 0x00);
    80000804:	100007b7          	lui	a5,0x10000
    80000808:	000780a3          	sb	zero,1(a5) # 10000001 <_entry-0x6fffffff>

  // special mode to set baud rate.
  WriteReg(LCR, LCR_BAUD_LATCH);
    8000080c:	10000737          	lui	a4,0x10000
    80000810:	f8000693          	li	a3,-128
    80000814:	00d701a3          	sb	a3,3(a4) # 10000003 <_entry-0x6ffffffd>

  // LSB for baud rate of 38.4K.
  WriteReg(0, 0x03);
    80000818:	468d                	li	a3,3
    8000081a:	10000637          	lui	a2,0x10000
    8000081e:	00d60023          	sb	a3,0(a2) # 10000000 <_entry-0x70000000>

  // MSB for baud rate of 38.4K.
  WriteReg(1, 0x00);
    80000822:	000780a3          	sb	zero,1(a5)

  // leave set-baud mode,
  // and set word length to 8 bits, no parity.
  WriteReg(LCR, LCR_EIGHT_BITS);
    80000826:	00d701a3          	sb	a3,3(a4)

  // reset and enable FIFOs.
  WriteReg(FCR, FCR_FIFO_ENABLE | FCR_FIFO_CLEAR);
    8000082a:	10000737          	lui	a4,0x10000
    8000082e:	461d                	li	a2,7
    80000830:	00c70123          	sb	a2,2(a4) # 10000002 <_entry-0x6ffffffe>

  // enable transmit and receive interrupts.
  WriteReg(IER, IER_TX_ENABLE | IER_RX_ENABLE);
    80000834:	00d780a3          	sb	a3,1(a5)

  initlock(&uart_tx_lock, "uart");
    80000838:	00006597          	auipc	a1,0x6
    8000083c:	7f858593          	addi	a1,a1,2040 # 80007030 <etext+0x30>
    80000840:	0000f517          	auipc	a0,0xf
    80000844:	21850513          	addi	a0,a0,536 # 8000fa58 <uart_tx_lock>
    80000848:	32c000ef          	jal	80000b74 <initlock>
}
    8000084c:	60a2                	ld	ra,8(sp)
    8000084e:	6402                	ld	s0,0(sp)
    80000850:	0141                	addi	sp,sp,16
    80000852:	8082                	ret

0000000080000854 <uartputc_sync>:
// use interrupts, for use by kernel printf() and
// to echo characters. it spins waiting for the uart's
// output register to be empty.
void
uartputc_sync(int c)
{
    80000854:	1101                	addi	sp,sp,-32
    80000856:	ec06                	sd	ra,24(sp)
    80000858:	e822                	sd	s0,16(sp)
    8000085a:	e426                	sd	s1,8(sp)
    8000085c:	1000                	addi	s0,sp,32
    8000085e:	84aa                	mv	s1,a0
  push_off();
    80000860:	354000ef          	jal	80000bb4 <push_off>

  if(panicked){
    80000864:	00007797          	auipc	a5,0x7
    80000868:	0ec7a783          	lw	a5,236(a5) # 80007950 <panicked>
    8000086c:	e795                	bnez	a5,80000898 <uartputc_sync+0x44>
    for(;;)
      ;
  }

  // wait for Transmit Holding Empty to be set in LSR.
  while((ReadReg(LSR) & LSR_TX_IDLE) == 0)
    8000086e:	10000737          	lui	a4,0x10000
    80000872:	0715                	addi	a4,a4,5 # 10000005 <_entry-0x6ffffffb>
    80000874:	00074783          	lbu	a5,0(a4)
    80000878:	0207f793          	andi	a5,a5,32
    8000087c:	dfe5                	beqz	a5,80000874 <uartputc_sync+0x20>
    ;
  WriteReg(THR, c);
    8000087e:	0ff4f513          	zext.b	a0,s1
    80000882:	100007b7          	lui	a5,0x10000
    80000886:	00a78023          	sb	a0,0(a5) # 10000000 <_entry-0x70000000>

  pop_off();
    8000088a:	3ae000ef          	jal	80000c38 <pop_off>
}
    8000088e:	60e2                	ld	ra,24(sp)
    80000890:	6442                	ld	s0,16(sp)
    80000892:	64a2                	ld	s1,8(sp)
    80000894:	6105                	addi	sp,sp,32
    80000896:	8082                	ret
    for(;;)
    80000898:	a001                	j	80000898 <uartputc_sync+0x44>

000000008000089a <uartstart>:
// called from both the top- and bottom-half.
void
uartstart()
{
  while(1){
    if(uart_tx_w == uart_tx_r){
    8000089a:	00007797          	auipc	a5,0x7
    8000089e:	0be7b783          	ld	a5,190(a5) # 80007958 <uart_tx_r>
    800008a2:	00007717          	auipc	a4,0x7
    800008a6:	0be73703          	ld	a4,190(a4) # 80007960 <uart_tx_w>
    800008aa:	08f70263          	beq	a4,a5,8000092e <uartstart+0x94>
{
    800008ae:	7139                	addi	sp,sp,-64
    800008b0:	fc06                	sd	ra,56(sp)
    800008b2:	f822                	sd	s0,48(sp)
    800008b4:	f426                	sd	s1,40(sp)
    800008b6:	f04a                	sd	s2,32(sp)
    800008b8:	ec4e                	sd	s3,24(sp)
    800008ba:	e852                	sd	s4,16(sp)
    800008bc:	e456                	sd	s5,8(sp)
    800008be:	e05a                	sd	s6,0(sp)
    800008c0:	0080                	addi	s0,sp,64
      // transmit buffer is empty.
      ReadReg(ISR);
      return;
    }
    
    if((ReadReg(LSR) & LSR_TX_IDLE) == 0){
    800008c2:	10000937          	lui	s2,0x10000
    800008c6:	0915                	addi	s2,s2,5 # 10000005 <_entry-0x6ffffffb>
      // so we cannot give it another byte.
      // it will interrupt when it's ready for a new byte.
      return;
    }
    
    int c = uart_tx_buf[uart_tx_r % UART_TX_BUF_SIZE];
    800008c8:	0000fa97          	auipc	s5,0xf
    800008cc:	190a8a93          	addi	s5,s5,400 # 8000fa58 <uart_tx_lock>
    uart_tx_r += 1;
    800008d0:	00007497          	auipc	s1,0x7
    800008d4:	08848493          	addi	s1,s1,136 # 80007958 <uart_tx_r>
    
    // maybe uartputc() is waiting for space in the buffer.
    wakeup(&uart_tx_r);
    
    WriteReg(THR, c);
    800008d8:	10000a37          	lui	s4,0x10000
    if(uart_tx_w == uart_tx_r){
    800008dc:	00007997          	auipc	s3,0x7
    800008e0:	08498993          	addi	s3,s3,132 # 80007960 <uart_tx_w>
    if((ReadReg(LSR) & LSR_TX_IDLE) == 0){
    800008e4:	00094703          	lbu	a4,0(s2)
    800008e8:	02077713          	andi	a4,a4,32
    800008ec:	c71d                	beqz	a4,8000091a <uartstart+0x80>
    int c = uart_tx_buf[uart_tx_r % UART_TX_BUF_SIZE];
    800008ee:	01f7f713          	andi	a4,a5,31
    800008f2:	9756                	add	a4,a4,s5
    800008f4:	01874b03          	lbu	s6,24(a4)
    uart_tx_r += 1;
    800008f8:	0785                	addi	a5,a5,1
    800008fa:	e09c                	sd	a5,0(s1)
    wakeup(&uart_tx_r);
    800008fc:	8526                	mv	a0,s1
    800008fe:	428010ef          	jal	80001d26 <wakeup>
    WriteReg(THR, c);
    80000902:	016a0023          	sb	s6,0(s4) # 10000000 <_entry-0x70000000>
    if(uart_tx_w == uart_tx_r){
    80000906:	609c                	ld	a5,0(s1)
    80000908:	0009b703          	ld	a4,0(s3)
    8000090c:	fcf71ce3          	bne	a4,a5,800008e4 <uartstart+0x4a>
      ReadReg(ISR);
    80000910:	100007b7          	lui	a5,0x10000
    80000914:	0789                	addi	a5,a5,2 # 10000002 <_entry-0x6ffffffe>
    80000916:	0007c783          	lbu	a5,0(a5)
  }
}
    8000091a:	70e2                	ld	ra,56(sp)
    8000091c:	7442                	ld	s0,48(sp)
    8000091e:	74a2                	ld	s1,40(sp)
    80000920:	7902                	ld	s2,32(sp)
    80000922:	69e2                	ld	s3,24(sp)
    80000924:	6a42                	ld	s4,16(sp)
    80000926:	6aa2                	ld	s5,8(sp)
    80000928:	6b02                	ld	s6,0(sp)
    8000092a:	6121                	addi	sp,sp,64
    8000092c:	8082                	ret
      ReadReg(ISR);
    8000092e:	100007b7          	lui	a5,0x10000
    80000932:	0789                	addi	a5,a5,2 # 10000002 <_entry-0x6ffffffe>
    80000934:	0007c783          	lbu	a5,0(a5)
      return;
    80000938:	8082                	ret

000000008000093a <uartputc>:
{
    8000093a:	7179                	addi	sp,sp,-48
    8000093c:	f406                	sd	ra,40(sp)
    8000093e:	f022                	sd	s0,32(sp)
    80000940:	ec26                	sd	s1,24(sp)
    80000942:	e84a                	sd	s2,16(sp)
    80000944:	e44e                	sd	s3,8(sp)
    80000946:	e052                	sd	s4,0(sp)
    80000948:	1800                	addi	s0,sp,48
    8000094a:	8a2a                	mv	s4,a0
  acquire(&uart_tx_lock);
    8000094c:	0000f517          	auipc	a0,0xf
    80000950:	10c50513          	addi	a0,a0,268 # 8000fa58 <uart_tx_lock>
    80000954:	2a0000ef          	jal	80000bf4 <acquire>
  if(panicked){
    80000958:	00007797          	auipc	a5,0x7
    8000095c:	ff87a783          	lw	a5,-8(a5) # 80007950 <panicked>
    80000960:	efbd                	bnez	a5,800009de <uartputc+0xa4>
  while(uart_tx_w == uart_tx_r + UART_TX_BUF_SIZE){
    80000962:	00007717          	auipc	a4,0x7
    80000966:	ffe73703          	ld	a4,-2(a4) # 80007960 <uart_tx_w>
    8000096a:	00007797          	auipc	a5,0x7
    8000096e:	fee7b783          	ld	a5,-18(a5) # 80007958 <uart_tx_r>
    80000972:	02078793          	addi	a5,a5,32
    sleep(&uart_tx_r, &uart_tx_lock);
    80000976:	0000f997          	auipc	s3,0xf
    8000097a:	0e298993          	addi	s3,s3,226 # 8000fa58 <uart_tx_lock>
    8000097e:	00007497          	auipc	s1,0x7
    80000982:	fda48493          	addi	s1,s1,-38 # 80007958 <uart_tx_r>
  while(uart_tx_w == uart_tx_r + UART_TX_BUF_SIZE){
    80000986:	00007917          	auipc	s2,0x7
    8000098a:	fda90913          	addi	s2,s2,-38 # 80007960 <uart_tx_w>
    8000098e:	00e79d63          	bne	a5,a4,800009a8 <uartputc+0x6e>
    sleep(&uart_tx_r, &uart_tx_lock);
    80000992:	85ce                	mv	a1,s3
    80000994:	8526                	mv	a0,s1
    80000996:	344010ef          	jal	80001cda <sleep>
  while(uart_tx_w == uart_tx_r + UART_TX_BUF_SIZE){
    8000099a:	00093703          	ld	a4,0(s2)
    8000099e:	609c                	ld	a5,0(s1)
    800009a0:	02078793          	addi	a5,a5,32
    800009a4:	fee787e3          	beq	a5,a4,80000992 <uartputc+0x58>
  uart_tx_buf[uart_tx_w % UART_TX_BUF_SIZE] = c;
    800009a8:	0000f497          	auipc	s1,0xf
    800009ac:	0b048493          	addi	s1,s1,176 # 8000fa58 <uart_tx_lock>
    800009b0:	01f77793          	andi	a5,a4,31
    800009b4:	97a6                	add	a5,a5,s1
    800009b6:	01478c23          	sb	s4,24(a5)
  uart_tx_w += 1;
    800009ba:	0705                	addi	a4,a4,1
    800009bc:	00007797          	auipc	a5,0x7
    800009c0:	fae7b223          	sd	a4,-92(a5) # 80007960 <uart_tx_w>
  uartstart();
    800009c4:	ed7ff0ef          	jal	8000089a <uartstart>
  release(&uart_tx_lock);
    800009c8:	8526                	mv	a0,s1
    800009ca:	2c2000ef          	jal	80000c8c <release>
}
    800009ce:	70a2                	ld	ra,40(sp)
    800009d0:	7402                	ld	s0,32(sp)
    800009d2:	64e2                	ld	s1,24(sp)
    800009d4:	6942                	ld	s2,16(sp)
    800009d6:	69a2                	ld	s3,8(sp)
    800009d8:	6a02                	ld	s4,0(sp)
    800009da:	6145                	addi	sp,sp,48
    800009dc:	8082                	ret
    for(;;)
    800009de:	a001                	j	800009de <uartputc+0xa4>

00000000800009e0 <uartgetc>:

// read one input character from the UART.
// return -1 if none is waiting.
int
uartgetc(void)
{
    800009e0:	1141                	addi	sp,sp,-16
    800009e2:	e422                	sd	s0,8(sp)
    800009e4:	0800                	addi	s0,sp,16
  if(ReadReg(LSR) & 0x01){
    800009e6:	100007b7          	lui	a5,0x10000
    800009ea:	0795                	addi	a5,a5,5 # 10000005 <_entry-0x6ffffffb>
    800009ec:	0007c783          	lbu	a5,0(a5)
    800009f0:	8b85                	andi	a5,a5,1
    800009f2:	cb81                	beqz	a5,80000a02 <uartgetc+0x22>
    // input data is ready.
    return ReadReg(RHR);
    800009f4:	100007b7          	lui	a5,0x10000
    800009f8:	0007c503          	lbu	a0,0(a5) # 10000000 <_entry-0x70000000>
  } else {
    return -1;
  }
}
    800009fc:	6422                	ld	s0,8(sp)
    800009fe:	0141                	addi	sp,sp,16
    80000a00:	8082                	ret
    return -1;
    80000a02:	557d                	li	a0,-1
    80000a04:	bfe5                	j	800009fc <uartgetc+0x1c>

0000000080000a06 <uartintr>:
// handle a uart interrupt, raised because input has
// arrived, or the uart is ready for more output, or
// both. called from devintr().
void
uartintr(void)
{
    80000a06:	1101                	addi	sp,sp,-32
    80000a08:	ec06                	sd	ra,24(sp)
    80000a0a:	e822                	sd	s0,16(sp)
    80000a0c:	e426                	sd	s1,8(sp)
    80000a0e:	1000                	addi	s0,sp,32
  // read and process incoming characters.
  while(1){
    int c = uartgetc();
    if(c == -1)
    80000a10:	54fd                	li	s1,-1
    80000a12:	a019                	j	80000a18 <uartintr+0x12>
      break;
    consoleintr(c);
    80000a14:	85fff0ef          	jal	80000272 <consoleintr>
    int c = uartgetc();
    80000a18:	fc9ff0ef          	jal	800009e0 <uartgetc>
    if(c == -1)
    80000a1c:	fe951ce3          	bne	a0,s1,80000a14 <uartintr+0xe>
  }

  // send buffered characters.
  acquire(&uart_tx_lock);
    80000a20:	0000f497          	auipc	s1,0xf
    80000a24:	03848493          	addi	s1,s1,56 # 8000fa58 <uart_tx_lock>
    80000a28:	8526                	mv	a0,s1
    80000a2a:	1ca000ef          	jal	80000bf4 <acquire>
  uartstart();
    80000a2e:	e6dff0ef          	jal	8000089a <uartstart>
  release(&uart_tx_lock);
    80000a32:	8526                	mv	a0,s1
    80000a34:	258000ef          	jal	80000c8c <release>
}
    80000a38:	60e2                	ld	ra,24(sp)
    80000a3a:	6442                	ld	s0,16(sp)
    80000a3c:	64a2                	ld	s1,8(sp)
    80000a3e:	6105                	addi	sp,sp,32
    80000a40:	8082                	ret

0000000080000a42 <kfree>:
// which normally should have been returned by a
// call to kalloc().  (The exception is when
// initializing the allocator; see kinit above.)
void
kfree(void *pa)
{
    80000a42:	1101                	addi	sp,sp,-32
    80000a44:	ec06                	sd	ra,24(sp)
    80000a46:	e822                	sd	s0,16(sp)
    80000a48:	e426                	sd	s1,8(sp)
    80000a4a:	e04a                	sd	s2,0(sp)
    80000a4c:	1000                	addi	s0,sp,32
  struct run *r;

  if(((uint64)pa % PGSIZE) != 0 || (char*)pa < end || (uint64)pa >= PHYSTOP)
    80000a4e:	03451793          	slli	a5,a0,0x34
    80000a52:	e7a9                	bnez	a5,80000a9c <kfree+0x5a>
    80000a54:	84aa                	mv	s1,a0
    80000a56:	00020797          	auipc	a5,0x20
    80000a5a:	6ea78793          	addi	a5,a5,1770 # 80021140 <end>
    80000a5e:	02f56f63          	bltu	a0,a5,80000a9c <kfree+0x5a>
    80000a62:	47c5                	li	a5,17
    80000a64:	07ee                	slli	a5,a5,0x1b
    80000a66:	02f57b63          	bgeu	a0,a5,80000a9c <kfree+0x5a>
    panic("kfree");

  // Fill with junk to catch dangling refs.
  memset(pa, 1, PGSIZE);
    80000a6a:	6605                	lui	a2,0x1
    80000a6c:	4585                	li	a1,1
    80000a6e:	25a000ef          	jal	80000cc8 <memset>

  r = (struct run*)pa;

  acquire(&kmem.lock);
    80000a72:	0000f917          	auipc	s2,0xf
    80000a76:	01e90913          	addi	s2,s2,30 # 8000fa90 <kmem>
    80000a7a:	854a                	mv	a0,s2
    80000a7c:	178000ef          	jal	80000bf4 <acquire>
  r->next = kmem.freelist;
    80000a80:	01893783          	ld	a5,24(s2)
    80000a84:	e09c                	sd	a5,0(s1)
  kmem.freelist = r;
    80000a86:	00993c23          	sd	s1,24(s2)
  release(&kmem.lock);
    80000a8a:	854a                	mv	a0,s2
    80000a8c:	200000ef          	jal	80000c8c <release>
}
    80000a90:	60e2                	ld	ra,24(sp)
    80000a92:	6442                	ld	s0,16(sp)
    80000a94:	64a2                	ld	s1,8(sp)
    80000a96:	6902                	ld	s2,0(sp)
    80000a98:	6105                	addi	sp,sp,32
    80000a9a:	8082                	ret
    panic("kfree");
    80000a9c:	00006517          	auipc	a0,0x6
    80000aa0:	59c50513          	addi	a0,a0,1436 # 80007038 <etext+0x38>
    80000aa4:	cf1ff0ef          	jal	80000794 <panic>

0000000080000aa8 <freerange>:
{
    80000aa8:	7179                	addi	sp,sp,-48
    80000aaa:	f406                	sd	ra,40(sp)
    80000aac:	f022                	sd	s0,32(sp)
    80000aae:	ec26                	sd	s1,24(sp)
    80000ab0:	1800                	addi	s0,sp,48
  p = (char*)PGROUNDUP((uint64)pa_start);
    80000ab2:	6785                	lui	a5,0x1
    80000ab4:	fff78713          	addi	a4,a5,-1 # fff <_entry-0x7ffff001>
    80000ab8:	00e504b3          	add	s1,a0,a4
    80000abc:	777d                	lui	a4,0xfffff
    80000abe:	8cf9                	and	s1,s1,a4
  for(; p + PGSIZE <= (char*)pa_end; p += PGSIZE)
    80000ac0:	94be                	add	s1,s1,a5
    80000ac2:	0295e263          	bltu	a1,s1,80000ae6 <freerange+0x3e>
    80000ac6:	e84a                	sd	s2,16(sp)
    80000ac8:	e44e                	sd	s3,8(sp)
    80000aca:	e052                	sd	s4,0(sp)
    80000acc:	892e                	mv	s2,a1
    kfree(p);
    80000ace:	7a7d                	lui	s4,0xfffff
  for(; p + PGSIZE <= (char*)pa_end; p += PGSIZE)
    80000ad0:	6985                	lui	s3,0x1
    kfree(p);
    80000ad2:	01448533          	add	a0,s1,s4
    80000ad6:	f6dff0ef          	jal	80000a42 <kfree>
  for(; p + PGSIZE <= (char*)pa_end; p += PGSIZE)
    80000ada:	94ce                	add	s1,s1,s3
    80000adc:	fe997be3          	bgeu	s2,s1,80000ad2 <freerange+0x2a>
    80000ae0:	6942                	ld	s2,16(sp)
    80000ae2:	69a2                	ld	s3,8(sp)
    80000ae4:	6a02                	ld	s4,0(sp)
}
    80000ae6:	70a2                	ld	ra,40(sp)
    80000ae8:	7402                	ld	s0,32(sp)
    80000aea:	64e2                	ld	s1,24(sp)
    80000aec:	6145                	addi	sp,sp,48
    80000aee:	8082                	ret

0000000080000af0 <kinit>:
{
    80000af0:	1141                	addi	sp,sp,-16
    80000af2:	e406                	sd	ra,8(sp)
    80000af4:	e022                	sd	s0,0(sp)
    80000af6:	0800                	addi	s0,sp,16
  initlock(&kmem.lock, "kmem");
    80000af8:	00006597          	auipc	a1,0x6
    80000afc:	54858593          	addi	a1,a1,1352 # 80007040 <etext+0x40>
    80000b00:	0000f517          	auipc	a0,0xf
    80000b04:	f9050513          	addi	a0,a0,-112 # 8000fa90 <kmem>
    80000b08:	06c000ef          	jal	80000b74 <initlock>
  freerange(end, (void*)PHYSTOP);
    80000b0c:	45c5                	li	a1,17
    80000b0e:	05ee                	slli	a1,a1,0x1b
    80000b10:	00020517          	auipc	a0,0x20
    80000b14:	63050513          	addi	a0,a0,1584 # 80021140 <end>
    80000b18:	f91ff0ef          	jal	80000aa8 <freerange>
}
    80000b1c:	60a2                	ld	ra,8(sp)
    80000b1e:	6402                	ld	s0,0(sp)
    80000b20:	0141                	addi	sp,sp,16
    80000b22:	8082                	ret

0000000080000b24 <kalloc>:
// Allocate one 4096-byte page of physical memory.
// Returns a pointer that the kernel can use.
// Returns 0 if the memory cannot be allocated.
void *
kalloc(void)
{
    80000b24:	1101                	addi	sp,sp,-32
    80000b26:	ec06                	sd	ra,24(sp)
    80000b28:	e822                	sd	s0,16(sp)
    80000b2a:	e426                	sd	s1,8(sp)
    80000b2c:	1000                	addi	s0,sp,32
  struct run *r;

  acquire(&kmem.lock);
    80000b2e:	0000f497          	auipc	s1,0xf
    80000b32:	f6248493          	addi	s1,s1,-158 # 8000fa90 <kmem>
    80000b36:	8526                	mv	a0,s1
    80000b38:	0bc000ef          	jal	80000bf4 <acquire>
  r = kmem.freelist;
    80000b3c:	6c84                	ld	s1,24(s1)
  if(r)
    80000b3e:	c485                	beqz	s1,80000b66 <kalloc+0x42>
    kmem.freelist = r->next;
    80000b40:	609c                	ld	a5,0(s1)
    80000b42:	0000f517          	auipc	a0,0xf
    80000b46:	f4e50513          	addi	a0,a0,-178 # 8000fa90 <kmem>
    80000b4a:	ed1c                	sd	a5,24(a0)
  release(&kmem.lock);
    80000b4c:	140000ef          	jal	80000c8c <release>

  if(r)
    memset((char*)r, 5, PGSIZE); // fill with junk
    80000b50:	6605                	lui	a2,0x1
    80000b52:	4595                	li	a1,5
    80000b54:	8526                	mv	a0,s1
    80000b56:	172000ef          	jal	80000cc8 <memset>
  return (void*)r;
}
    80000b5a:	8526                	mv	a0,s1
    80000b5c:	60e2                	ld	ra,24(sp)
    80000b5e:	6442                	ld	s0,16(sp)
    80000b60:	64a2                	ld	s1,8(sp)
    80000b62:	6105                	addi	sp,sp,32
    80000b64:	8082                	ret
  release(&kmem.lock);
    80000b66:	0000f517          	auipc	a0,0xf
    80000b6a:	f2a50513          	addi	a0,a0,-214 # 8000fa90 <kmem>
    80000b6e:	11e000ef          	jal	80000c8c <release>
  if(r)
    80000b72:	b7e5                	j	80000b5a <kalloc+0x36>

0000000080000b74 <initlock>:
#include "proc.h"
#include "defs.h"

void
initlock(struct spinlock *lk, char *name)
{
    80000b74:	1141                	addi	sp,sp,-16
    80000b76:	e422                	sd	s0,8(sp)
    80000b78:	0800                	addi	s0,sp,16
  lk->name = name;
    80000b7a:	e50c                	sd	a1,8(a0)
  lk->locked = 0;
    80000b7c:	00052023          	sw	zero,0(a0)
  lk->cpu = 0;
    80000b80:	00053823          	sd	zero,16(a0)
}
    80000b84:	6422                	ld	s0,8(sp)
    80000b86:	0141                	addi	sp,sp,16
    80000b88:	8082                	ret

0000000080000b8a <holding>:
// Interrupts must be off.
int
holding(struct spinlock *lk)
{
  int r;
  r = (lk->locked && lk->cpu == mycpu());
    80000b8a:	411c                	lw	a5,0(a0)
    80000b8c:	e399                	bnez	a5,80000b92 <holding+0x8>
    80000b8e:	4501                	li	a0,0
  return r;
}
    80000b90:	8082                	ret
{
    80000b92:	1101                	addi	sp,sp,-32
    80000b94:	ec06                	sd	ra,24(sp)
    80000b96:	e822                	sd	s0,16(sp)
    80000b98:	e426                	sd	s1,8(sp)
    80000b9a:	1000                	addi	s0,sp,32
  r = (lk->locked && lk->cpu == mycpu());
    80000b9c:	6904                	ld	s1,16(a0)
    80000b9e:	539000ef          	jal	800018d6 <mycpu>
    80000ba2:	40a48533          	sub	a0,s1,a0
    80000ba6:	00153513          	seqz	a0,a0
}
    80000baa:	60e2                	ld	ra,24(sp)
    80000bac:	6442                	ld	s0,16(sp)
    80000bae:	64a2                	ld	s1,8(sp)
    80000bb0:	6105                	addi	sp,sp,32
    80000bb2:	8082                	ret

0000000080000bb4 <push_off>:
// it takes two pop_off()s to undo two push_off()s.  Also, if interrupts
// are initially off, then push_off, pop_off leaves them off.

void
push_off(void)
{
    80000bb4:	1101                	addi	sp,sp,-32
    80000bb6:	ec06                	sd	ra,24(sp)
    80000bb8:	e822                	sd	s0,16(sp)
    80000bba:	e426                	sd	s1,8(sp)
    80000bbc:	1000                	addi	s0,sp,32
  asm volatile("csrr %0, sstatus" : "=r" (x) );
    80000bbe:	100024f3          	csrr	s1,sstatus
    80000bc2:	100027f3          	csrr	a5,sstatus
  w_sstatus(r_sstatus() & ~SSTATUS_SIE);
    80000bc6:	9bf5                	andi	a5,a5,-3
  asm volatile("csrw sstatus, %0" : : "r" (x));
    80000bc8:	10079073          	csrw	sstatus,a5
  int old = intr_get();

  intr_off();
  if(mycpu()->noff == 0)
    80000bcc:	50b000ef          	jal	800018d6 <mycpu>
    80000bd0:	5d3c                	lw	a5,120(a0)
    80000bd2:	cb99                	beqz	a5,80000be8 <push_off+0x34>
    mycpu()->intena = old;
  mycpu()->noff += 1;
    80000bd4:	503000ef          	jal	800018d6 <mycpu>
    80000bd8:	5d3c                	lw	a5,120(a0)
    80000bda:	2785                	addiw	a5,a5,1
    80000bdc:	dd3c                	sw	a5,120(a0)
}
    80000bde:	60e2                	ld	ra,24(sp)
    80000be0:	6442                	ld	s0,16(sp)
    80000be2:	64a2                	ld	s1,8(sp)
    80000be4:	6105                	addi	sp,sp,32
    80000be6:	8082                	ret
    mycpu()->intena = old;
    80000be8:	4ef000ef          	jal	800018d6 <mycpu>
  return (x & SSTATUS_SIE) != 0;
    80000bec:	8085                	srli	s1,s1,0x1
    80000bee:	8885                	andi	s1,s1,1
    80000bf0:	dd64                	sw	s1,124(a0)
    80000bf2:	b7cd                	j	80000bd4 <push_off+0x20>

0000000080000bf4 <acquire>:
{
    80000bf4:	1101                	addi	sp,sp,-32
    80000bf6:	ec06                	sd	ra,24(sp)
    80000bf8:	e822                	sd	s0,16(sp)
    80000bfa:	e426                	sd	s1,8(sp)
    80000bfc:	1000                	addi	s0,sp,32
    80000bfe:	84aa                	mv	s1,a0
  push_off(); // disable interrupts to avoid deadlock.
    80000c00:	fb5ff0ef          	jal	80000bb4 <push_off>
  if(holding(lk))
    80000c04:	8526                	mv	a0,s1
    80000c06:	f85ff0ef          	jal	80000b8a <holding>
  while(__sync_lock_test_and_set(&lk->locked, 1) != 0)
    80000c0a:	4705                	li	a4,1
  if(holding(lk))
    80000c0c:	e105                	bnez	a0,80000c2c <acquire+0x38>
  while(__sync_lock_test_and_set(&lk->locked, 1) != 0)
    80000c0e:	87ba                	mv	a5,a4
    80000c10:	0cf4a7af          	amoswap.w.aq	a5,a5,(s1)
    80000c14:	2781                	sext.w	a5,a5
    80000c16:	ffe5                	bnez	a5,80000c0e <acquire+0x1a>
  __sync_synchronize();
    80000c18:	0ff0000f          	fence
  lk->cpu = mycpu();
    80000c1c:	4bb000ef          	jal	800018d6 <mycpu>
    80000c20:	e888                	sd	a0,16(s1)
}
    80000c22:	60e2                	ld	ra,24(sp)
    80000c24:	6442                	ld	s0,16(sp)
    80000c26:	64a2                	ld	s1,8(sp)
    80000c28:	6105                	addi	sp,sp,32
    80000c2a:	8082                	ret
    panic("acquire");
    80000c2c:	00006517          	auipc	a0,0x6
    80000c30:	41c50513          	addi	a0,a0,1052 # 80007048 <etext+0x48>
    80000c34:	b61ff0ef          	jal	80000794 <panic>

0000000080000c38 <pop_off>:

void
pop_off(void)
{
    80000c38:	1141                	addi	sp,sp,-16
    80000c3a:	e406                	sd	ra,8(sp)
    80000c3c:	e022                	sd	s0,0(sp)
    80000c3e:	0800                	addi	s0,sp,16
  struct cpu *c = mycpu();
    80000c40:	497000ef          	jal	800018d6 <mycpu>
  asm volatile("csrr %0, sstatus" : "=r" (x) );
    80000c44:	100027f3          	csrr	a5,sstatus
  return (x & SSTATUS_SIE) != 0;
    80000c48:	8b89                	andi	a5,a5,2
  if(intr_get())
    80000c4a:	e78d                	bnez	a5,80000c74 <pop_off+0x3c>
    panic("pop_off - interruptible");
  if(c->noff < 1)
    80000c4c:	5d3c                	lw	a5,120(a0)
    80000c4e:	02f05963          	blez	a5,80000c80 <pop_off+0x48>
    panic("pop_off");
  c->noff -= 1;
    80000c52:	37fd                	addiw	a5,a5,-1
    80000c54:	0007871b          	sext.w	a4,a5
    80000c58:	dd3c                	sw	a5,120(a0)
  if(c->noff == 0 && c->intena)
    80000c5a:	eb09                	bnez	a4,80000c6c <pop_off+0x34>
    80000c5c:	5d7c                	lw	a5,124(a0)
    80000c5e:	c799                	beqz	a5,80000c6c <pop_off+0x34>
  asm volatile("csrr %0, sstatus" : "=r" (x) );
    80000c60:	100027f3          	csrr	a5,sstatus
  w_sstatus(r_sstatus() | SSTATUS_SIE);
    80000c64:	0027e793          	ori	a5,a5,2
  asm volatile("csrw sstatus, %0" : : "r" (x));
    80000c68:	10079073          	csrw	sstatus,a5
    intr_on();
}
    80000c6c:	60a2                	ld	ra,8(sp)
    80000c6e:	6402                	ld	s0,0(sp)
    80000c70:	0141                	addi	sp,sp,16
    80000c72:	8082                	ret
    panic("pop_off - interruptible");
    80000c74:	00006517          	auipc	a0,0x6
    80000c78:	3dc50513          	addi	a0,a0,988 # 80007050 <etext+0x50>
    80000c7c:	b19ff0ef          	jal	80000794 <panic>
    panic("pop_off");
    80000c80:	00006517          	auipc	a0,0x6
    80000c84:	3e850513          	addi	a0,a0,1000 # 80007068 <etext+0x68>
    80000c88:	b0dff0ef          	jal	80000794 <panic>

0000000080000c8c <release>:
{
    80000c8c:	1101                	addi	sp,sp,-32
    80000c8e:	ec06                	sd	ra,24(sp)
    80000c90:	e822                	sd	s0,16(sp)
    80000c92:	e426                	sd	s1,8(sp)
    80000c94:	1000                	addi	s0,sp,32
    80000c96:	84aa                	mv	s1,a0
  if(!holding(lk))
    80000c98:	ef3ff0ef          	jal	80000b8a <holding>
    80000c9c:	c105                	beqz	a0,80000cbc <release+0x30>
  lk->cpu = 0;
    80000c9e:	0004b823          	sd	zero,16(s1)
  __sync_synchronize();
    80000ca2:	0ff0000f          	fence
  __sync_lock_release(&lk->locked);
    80000ca6:	0f50000f          	fence	iorw,ow
    80000caa:	0804a02f          	amoswap.w	zero,zero,(s1)
  pop_off();
    80000cae:	f8bff0ef          	jal	80000c38 <pop_off>
}
    80000cb2:	60e2                	ld	ra,24(sp)
    80000cb4:	6442                	ld	s0,16(sp)
    80000cb6:	64a2                	ld	s1,8(sp)
    80000cb8:	6105                	addi	sp,sp,32
    80000cba:	8082                	ret
    panic("release");
    80000cbc:	00006517          	auipc	a0,0x6
    80000cc0:	3b450513          	addi	a0,a0,948 # 80007070 <etext+0x70>
    80000cc4:	ad1ff0ef          	jal	80000794 <panic>

0000000080000cc8 <memset>:
#include "types.h"

void*
memset(void *dst, int c, uint n)
{
    80000cc8:	1141                	addi	sp,sp,-16
    80000cca:	e422                	sd	s0,8(sp)
    80000ccc:	0800                	addi	s0,sp,16
  char *cdst = (char *) dst;
  int i;
  for(i = 0; i < n; i++){
    80000cce:	ca19                	beqz	a2,80000ce4 <memset+0x1c>
    80000cd0:	87aa                	mv	a5,a0
    80000cd2:	1602                	slli	a2,a2,0x20
    80000cd4:	9201                	srli	a2,a2,0x20
    80000cd6:	00a60733          	add	a4,a2,a0
    cdst[i] = c;
    80000cda:	00b78023          	sb	a1,0(a5)
  for(i = 0; i < n; i++){
    80000cde:	0785                	addi	a5,a5,1
    80000ce0:	fee79de3          	bne	a5,a4,80000cda <memset+0x12>
  }
  return dst;
}
    80000ce4:	6422                	ld	s0,8(sp)
    80000ce6:	0141                	addi	sp,sp,16
    80000ce8:	8082                	ret

0000000080000cea <memcmp>:

int
memcmp(const void *v1, const void *v2, uint n)
{
    80000cea:	1141                	addi	sp,sp,-16
    80000cec:	e422                	sd	s0,8(sp)
    80000cee:	0800                	addi	s0,sp,16
  const uchar *s1, *s2;

  s1 = v1;
  s2 = v2;
  while(n-- > 0){
    80000cf0:	ca05                	beqz	a2,80000d20 <memcmp+0x36>
    80000cf2:	fff6069b          	addiw	a3,a2,-1 # fff <_entry-0x7ffff001>
    80000cf6:	1682                	slli	a3,a3,0x20
    80000cf8:	9281                	srli	a3,a3,0x20
    80000cfa:	0685                	addi	a3,a3,1
    80000cfc:	96aa                	add	a3,a3,a0
    if(*s1 != *s2)
    80000cfe:	00054783          	lbu	a5,0(a0)
    80000d02:	0005c703          	lbu	a4,0(a1)
    80000d06:	00e79863          	bne	a5,a4,80000d16 <memcmp+0x2c>
      return *s1 - *s2;
    s1++, s2++;
    80000d0a:	0505                	addi	a0,a0,1
    80000d0c:	0585                	addi	a1,a1,1
  while(n-- > 0){
    80000d0e:	fed518e3          	bne	a0,a3,80000cfe <memcmp+0x14>
  }

  return 0;
    80000d12:	4501                	li	a0,0
    80000d14:	a019                	j	80000d1a <memcmp+0x30>
      return *s1 - *s2;
    80000d16:	40e7853b          	subw	a0,a5,a4
}
    80000d1a:	6422                	ld	s0,8(sp)
    80000d1c:	0141                	addi	sp,sp,16
    80000d1e:	8082                	ret
  return 0;
    80000d20:	4501                	li	a0,0
    80000d22:	bfe5                	j	80000d1a <memcmp+0x30>

0000000080000d24 <memmove>:

void*
memmove(void *dst, const void *src, uint n)
{
    80000d24:	1141                	addi	sp,sp,-16
    80000d26:	e422                	sd	s0,8(sp)
    80000d28:	0800                	addi	s0,sp,16
  const char *s;
  char *d;

  if(n == 0)
    80000d2a:	c205                	beqz	a2,80000d4a <memmove+0x26>
    return dst;
  
  s = src;
  d = dst;
  if(s < d && s + n > d){
    80000d2c:	02a5e263          	bltu	a1,a0,80000d50 <memmove+0x2c>
    s += n;
    d += n;
    while(n-- > 0)
      *--d = *--s;
  } else
    while(n-- > 0)
    80000d30:	1602                	slli	a2,a2,0x20
    80000d32:	9201                	srli	a2,a2,0x20
    80000d34:	00c587b3          	add	a5,a1,a2
{
    80000d38:	872a                	mv	a4,a0
      *d++ = *s++;
    80000d3a:	0585                	addi	a1,a1,1
    80000d3c:	0705                	addi	a4,a4,1 # fffffffffffff001 <end+0xffffffff7ffddec1>
    80000d3e:	fff5c683          	lbu	a3,-1(a1)
    80000d42:	fed70fa3          	sb	a3,-1(a4)
    while(n-- > 0)
    80000d46:	feb79ae3          	bne	a5,a1,80000d3a <memmove+0x16>

  return dst;
}
    80000d4a:	6422                	ld	s0,8(sp)
    80000d4c:	0141                	addi	sp,sp,16
    80000d4e:	8082                	ret
  if(s < d && s + n > d){
    80000d50:	02061693          	slli	a3,a2,0x20
    80000d54:	9281                	srli	a3,a3,0x20
    80000d56:	00d58733          	add	a4,a1,a3
    80000d5a:	fce57be3          	bgeu	a0,a4,80000d30 <memmove+0xc>
    d += n;
    80000d5e:	96aa                	add	a3,a3,a0
    while(n-- > 0)
    80000d60:	fff6079b          	addiw	a5,a2,-1
    80000d64:	1782                	slli	a5,a5,0x20
    80000d66:	9381                	srli	a5,a5,0x20
    80000d68:	fff7c793          	not	a5,a5
    80000d6c:	97ba                	add	a5,a5,a4
      *--d = *--s;
    80000d6e:	177d                	addi	a4,a4,-1
    80000d70:	16fd                	addi	a3,a3,-1
    80000d72:	00074603          	lbu	a2,0(a4)
    80000d76:	00c68023          	sb	a2,0(a3)
    while(n-- > 0)
    80000d7a:	fef71ae3          	bne	a4,a5,80000d6e <memmove+0x4a>
    80000d7e:	b7f1                	j	80000d4a <memmove+0x26>

0000000080000d80 <memcpy>:

// memcpy exists to placate GCC.  Use memmove.
void*
memcpy(void *dst, const void *src, uint n)
{
    80000d80:	1141                	addi	sp,sp,-16
    80000d82:	e406                	sd	ra,8(sp)
    80000d84:	e022                	sd	s0,0(sp)
    80000d86:	0800                	addi	s0,sp,16
  return memmove(dst, src, n);
    80000d88:	f9dff0ef          	jal	80000d24 <memmove>
}
    80000d8c:	60a2                	ld	ra,8(sp)
    80000d8e:	6402                	ld	s0,0(sp)
    80000d90:	0141                	addi	sp,sp,16
    80000d92:	8082                	ret

0000000080000d94 <strncmp>:

int
strncmp(const char *p, const char *q, uint n)
{
    80000d94:	1141                	addi	sp,sp,-16
    80000d96:	e422                	sd	s0,8(sp)
    80000d98:	0800                	addi	s0,sp,16
  while(n > 0 && *p && *p == *q)
    80000d9a:	ce11                	beqz	a2,80000db6 <strncmp+0x22>
    80000d9c:	00054783          	lbu	a5,0(a0)
    80000da0:	cf89                	beqz	a5,80000dba <strncmp+0x26>
    80000da2:	0005c703          	lbu	a4,0(a1)
    80000da6:	00f71a63          	bne	a4,a5,80000dba <strncmp+0x26>
    n--, p++, q++;
    80000daa:	367d                	addiw	a2,a2,-1
    80000dac:	0505                	addi	a0,a0,1
    80000dae:	0585                	addi	a1,a1,1
  while(n > 0 && *p && *p == *q)
    80000db0:	f675                	bnez	a2,80000d9c <strncmp+0x8>
  if(n == 0)
    return 0;
    80000db2:	4501                	li	a0,0
    80000db4:	a801                	j	80000dc4 <strncmp+0x30>
    80000db6:	4501                	li	a0,0
    80000db8:	a031                	j	80000dc4 <strncmp+0x30>
  return (uchar)*p - (uchar)*q;
    80000dba:	00054503          	lbu	a0,0(a0)
    80000dbe:	0005c783          	lbu	a5,0(a1)
    80000dc2:	9d1d                	subw	a0,a0,a5
}
    80000dc4:	6422                	ld	s0,8(sp)
    80000dc6:	0141                	addi	sp,sp,16
    80000dc8:	8082                	ret

0000000080000dca <strncpy>:

char*
strncpy(char *s, const char *t, int n)
{
    80000dca:	1141                	addi	sp,sp,-16
    80000dcc:	e422                	sd	s0,8(sp)
    80000dce:	0800                	addi	s0,sp,16
  char *os;

  os = s;
  while(n-- > 0 && (*s++ = *t++) != 0)
    80000dd0:	87aa                	mv	a5,a0
    80000dd2:	86b2                	mv	a3,a2
    80000dd4:	367d                	addiw	a2,a2,-1
    80000dd6:	02d05563          	blez	a3,80000e00 <strncpy+0x36>
    80000dda:	0785                	addi	a5,a5,1
    80000ddc:	0005c703          	lbu	a4,0(a1)
    80000de0:	fee78fa3          	sb	a4,-1(a5)
    80000de4:	0585                	addi	a1,a1,1
    80000de6:	f775                	bnez	a4,80000dd2 <strncpy+0x8>
    ;
  while(n-- > 0)
    80000de8:	873e                	mv	a4,a5
    80000dea:	9fb5                	addw	a5,a5,a3
    80000dec:	37fd                	addiw	a5,a5,-1
    80000dee:	00c05963          	blez	a2,80000e00 <strncpy+0x36>
    *s++ = 0;
    80000df2:	0705                	addi	a4,a4,1
    80000df4:	fe070fa3          	sb	zero,-1(a4)
  while(n-- > 0)
    80000df8:	40e786bb          	subw	a3,a5,a4
    80000dfc:	fed04be3          	bgtz	a3,80000df2 <strncpy+0x28>
  return os;
}
    80000e00:	6422                	ld	s0,8(sp)
    80000e02:	0141                	addi	sp,sp,16
    80000e04:	8082                	ret

0000000080000e06 <safestrcpy>:

// Like strncpy but guaranteed to NUL-terminate.
char*
safestrcpy(char *s, const char *t, int n)
{
    80000e06:	1141                	addi	sp,sp,-16
    80000e08:	e422                	sd	s0,8(sp)
    80000e0a:	0800                	addi	s0,sp,16
  char *os;

  os = s;
  if(n <= 0)
    80000e0c:	02c05363          	blez	a2,80000e32 <safestrcpy+0x2c>
    80000e10:	fff6069b          	addiw	a3,a2,-1
    80000e14:	1682                	slli	a3,a3,0x20
    80000e16:	9281                	srli	a3,a3,0x20
    80000e18:	96ae                	add	a3,a3,a1
    80000e1a:	87aa                	mv	a5,a0
    return os;
  while(--n > 0 && (*s++ = *t++) != 0)
    80000e1c:	00d58963          	beq	a1,a3,80000e2e <safestrcpy+0x28>
    80000e20:	0585                	addi	a1,a1,1
    80000e22:	0785                	addi	a5,a5,1
    80000e24:	fff5c703          	lbu	a4,-1(a1)
    80000e28:	fee78fa3          	sb	a4,-1(a5)
    80000e2c:	fb65                	bnez	a4,80000e1c <safestrcpy+0x16>
    ;
  *s = 0;
    80000e2e:	00078023          	sb	zero,0(a5)
  return os;
}
    80000e32:	6422                	ld	s0,8(sp)
    80000e34:	0141                	addi	sp,sp,16
    80000e36:	8082                	ret

0000000080000e38 <strlen>:

int
strlen(const char *s)
{
    80000e38:	1141                	addi	sp,sp,-16
    80000e3a:	e422                	sd	s0,8(sp)
    80000e3c:	0800                	addi	s0,sp,16
  int n;

  for(n = 0; s[n]; n++)
    80000e3e:	00054783          	lbu	a5,0(a0)
    80000e42:	cf91                	beqz	a5,80000e5e <strlen+0x26>
    80000e44:	0505                	addi	a0,a0,1
    80000e46:	87aa                	mv	a5,a0
    80000e48:	86be                	mv	a3,a5
    80000e4a:	0785                	addi	a5,a5,1
    80000e4c:	fff7c703          	lbu	a4,-1(a5)
    80000e50:	ff65                	bnez	a4,80000e48 <strlen+0x10>
    80000e52:	40a6853b          	subw	a0,a3,a0
    80000e56:	2505                	addiw	a0,a0,1
    ;
  return n;
}
    80000e58:	6422                	ld	s0,8(sp)
    80000e5a:	0141                	addi	sp,sp,16
    80000e5c:	8082                	ret
  for(n = 0; s[n]; n++)
    80000e5e:	4501                	li	a0,0
    80000e60:	bfe5                	j	80000e58 <strlen+0x20>

0000000080000e62 <main>:
volatile static int started = 0;

// start() jumps here in supervisor mode on all CPUs.
void
main()
{
    80000e62:	1141                	addi	sp,sp,-16
    80000e64:	e406                	sd	ra,8(sp)
    80000e66:	e022                	sd	s0,0(sp)
    80000e68:	0800                	addi	s0,sp,16
  if(cpuid() == 0){
    80000e6a:	25d000ef          	jal	800018c6 <cpuid>
    init_priority_control();
    userinit();      // first user process
    __sync_synchronize();
    started = 1;
  } else {
    while(started == 0)
    80000e6e:	00007717          	auipc	a4,0x7
    80000e72:	afa70713          	addi	a4,a4,-1286 # 80007968 <started>
  if(cpuid() == 0){
    80000e76:	c51d                	beqz	a0,80000ea4 <main+0x42>
    while(started == 0)
    80000e78:	431c                	lw	a5,0(a4)
    80000e7a:	2781                	sext.w	a5,a5
    80000e7c:	dff5                	beqz	a5,80000e78 <main+0x16>
      ;
    __sync_synchronize();
    80000e7e:	0ff0000f          	fence
    printf("hart %d starting\n", cpuid());
    80000e82:	245000ef          	jal	800018c6 <cpuid>
    80000e86:	85aa                	mv	a1,a0
    80000e88:	00006517          	auipc	a0,0x6
    80000e8c:	21050513          	addi	a0,a0,528 # 80007098 <etext+0x98>
    80000e90:	e32ff0ef          	jal	800004c2 <printf>
    kvminithart();    // turn on paging
    80000e94:	084000ef          	jal	80000f18 <kvminithart>
    trapinithart();   // install kernel trap vector
    80000e98:	716010ef          	jal	800025ae <trapinithart>
    plicinithart();   // ask PLIC for device interrupts
    80000e9c:	59c040ef          	jal	80005438 <plicinithart>
  }

  scheduler();        
    80000ea0:	465000ef          	jal	80001b04 <scheduler>
    consoleinit();
    80000ea4:	d48ff0ef          	jal	800003ec <consoleinit>
    printfinit();
    80000ea8:	927ff0ef          	jal	800007ce <printfinit>
    printf("\n");
    80000eac:	00006517          	auipc	a0,0x6
    80000eb0:	1cc50513          	addi	a0,a0,460 # 80007078 <etext+0x78>
    80000eb4:	e0eff0ef          	jal	800004c2 <printf>
    printf("xv6 kernel is booting\n");
    80000eb8:	00006517          	auipc	a0,0x6
    80000ebc:	1c850513          	addi	a0,a0,456 # 80007080 <etext+0x80>
    80000ec0:	e02ff0ef          	jal	800004c2 <printf>
    printf("\n");
    80000ec4:	00006517          	auipc	a0,0x6
    80000ec8:	1b450513          	addi	a0,a0,436 # 80007078 <etext+0x78>
    80000ecc:	df6ff0ef          	jal	800004c2 <printf>
    kinit();         // physical page allocator
    80000ed0:	c21ff0ef          	jal	80000af0 <kinit>
    kvminit();       // create kernel page table
    80000ed4:	2ce000ef          	jal	800011a2 <kvminit>
    kvminithart();   // turn on paging
    80000ed8:	040000ef          	jal	80000f18 <kvminithart>
    procinit();      // process table
    80000edc:	127000ef          	jal	80001802 <procinit>
    trapinit();      // trap vectors
    80000ee0:	6aa010ef          	jal	8000258a <trapinit>
    trapinithart();  // install kernel trap vector
    80000ee4:	6ca010ef          	jal	800025ae <trapinithart>
    plicinit();      // set up interrupt controller
    80000ee8:	536040ef          	jal	8000541e <plicinit>
    plicinithart();  // ask PLIC for device interrupts
    80000eec:	54c040ef          	jal	80005438 <plicinithart>
    binit();         // buffer cache
    80000ef0:	4f1010ef          	jal	80002be0 <binit>
    iinit();         // inode table
    80000ef4:	2e2020ef          	jal	800031d6 <iinit>
    fileinit();      // file table
    80000ef8:	08e030ef          	jal	80003f86 <fileinit>
    virtio_disk_init(); // emulated hard disk
    80000efc:	62c040ef          	jal	80005528 <virtio_disk_init>
    init_priority_control();
    80000f00:	1cc010ef          	jal	800020cc <init_priority_control>
    userinit();      // first user process
    80000f04:	356010ef          	jal	8000225a <userinit>
    __sync_synchronize();
    80000f08:	0ff0000f          	fence
    started = 1;
    80000f0c:	4785                	li	a5,1
    80000f0e:	00007717          	auipc	a4,0x7
    80000f12:	a4f72d23          	sw	a5,-1446(a4) # 80007968 <started>
    80000f16:	b769                	j	80000ea0 <main+0x3e>

0000000080000f18 <kvminithart>:

// Switch h/w page table register to the kernel's page table,
// and enable paging.
void
kvminithart()
{
    80000f18:	1141                	addi	sp,sp,-16
    80000f1a:	e422                	sd	s0,8(sp)
    80000f1c:	0800                	addi	s0,sp,16
// flush the TLB.
static inline void
sfence_vma()
{
  // the zero, zero means flush all TLB entries.
  asm volatile("sfence.vma zero, zero");
    80000f1e:	12000073          	sfence.vma
  // wait for any previous writes to the page table memory to finish.
  sfence_vma();

  w_satp(MAKE_SATP(kernel_pagetable));
    80000f22:	00007797          	auipc	a5,0x7
    80000f26:	a4e7b783          	ld	a5,-1458(a5) # 80007970 <kernel_pagetable>
    80000f2a:	83b1                	srli	a5,a5,0xc
    80000f2c:	577d                	li	a4,-1
    80000f2e:	177e                	slli	a4,a4,0x3f
    80000f30:	8fd9                	or	a5,a5,a4
  asm volatile("csrw satp, %0" : : "r" (x));
    80000f32:	18079073          	csrw	satp,a5
  asm volatile("sfence.vma zero, zero");
    80000f36:	12000073          	sfence.vma

  // flush stale entries from the TLB.
  sfence_vma();
}
    80000f3a:	6422                	ld	s0,8(sp)
    80000f3c:	0141                	addi	sp,sp,16
    80000f3e:	8082                	ret

0000000080000f40 <walk>:
//   21..29 -- 9 bits of level-1 index.
//   12..20 -- 9 bits of level-0 index.
//    0..11 -- 12 bits of byte offset within the page.
pte_t *
walk(pagetable_t pagetable, uint64 va, int alloc)
{
    80000f40:	7139                	addi	sp,sp,-64
    80000f42:	fc06                	sd	ra,56(sp)
    80000f44:	f822                	sd	s0,48(sp)
    80000f46:	f426                	sd	s1,40(sp)
    80000f48:	f04a                	sd	s2,32(sp)
    80000f4a:	ec4e                	sd	s3,24(sp)
    80000f4c:	e852                	sd	s4,16(sp)
    80000f4e:	e456                	sd	s5,8(sp)
    80000f50:	e05a                	sd	s6,0(sp)
    80000f52:	0080                	addi	s0,sp,64
    80000f54:	84aa                	mv	s1,a0
    80000f56:	89ae                	mv	s3,a1
    80000f58:	8ab2                	mv	s5,a2
  if(va >= MAXVA)
    80000f5a:	57fd                	li	a5,-1
    80000f5c:	83e9                	srli	a5,a5,0x1a
    80000f5e:	4a79                	li	s4,30
    panic("walk");

  for(int level = 2; level > 0; level--) {
    80000f60:	4b31                	li	s6,12
  if(va >= MAXVA)
    80000f62:	02b7fc63          	bgeu	a5,a1,80000f9a <walk+0x5a>
    panic("walk");
    80000f66:	00006517          	auipc	a0,0x6
    80000f6a:	14a50513          	addi	a0,a0,330 # 800070b0 <etext+0xb0>
    80000f6e:	827ff0ef          	jal	80000794 <panic>
    pte_t *pte = &pagetable[PX(level, va)];
    if(*pte & PTE_V) {
      pagetable = (pagetable_t)PTE2PA(*pte);
    } else {
      if(!alloc || (pagetable = (pde_t*)kalloc()) == 0)
    80000f72:	060a8263          	beqz	s5,80000fd6 <walk+0x96>
    80000f76:	bafff0ef          	jal	80000b24 <kalloc>
    80000f7a:	84aa                	mv	s1,a0
    80000f7c:	c139                	beqz	a0,80000fc2 <walk+0x82>
        return 0;
      memset(pagetable, 0, PGSIZE);
    80000f7e:	6605                	lui	a2,0x1
    80000f80:	4581                	li	a1,0
    80000f82:	d47ff0ef          	jal	80000cc8 <memset>
      *pte = PA2PTE(pagetable) | PTE_V;
    80000f86:	00c4d793          	srli	a5,s1,0xc
    80000f8a:	07aa                	slli	a5,a5,0xa
    80000f8c:	0017e793          	ori	a5,a5,1
    80000f90:	00f93023          	sd	a5,0(s2)
  for(int level = 2; level > 0; level--) {
    80000f94:	3a5d                	addiw	s4,s4,-9 # ffffffffffffeff7 <end+0xffffffff7ffddeb7>
    80000f96:	036a0063          	beq	s4,s6,80000fb6 <walk+0x76>
    pte_t *pte = &pagetable[PX(level, va)];
    80000f9a:	0149d933          	srl	s2,s3,s4
    80000f9e:	1ff97913          	andi	s2,s2,511
    80000fa2:	090e                	slli	s2,s2,0x3
    80000fa4:	9926                	add	s2,s2,s1
    if(*pte & PTE_V) {
    80000fa6:	00093483          	ld	s1,0(s2)
    80000faa:	0014f793          	andi	a5,s1,1
    80000fae:	d3f1                	beqz	a5,80000f72 <walk+0x32>
      pagetable = (pagetable_t)PTE2PA(*pte);
    80000fb0:	80a9                	srli	s1,s1,0xa
    80000fb2:	04b2                	slli	s1,s1,0xc
    80000fb4:	b7c5                	j	80000f94 <walk+0x54>
    }
  }
  return &pagetable[PX(0, va)];
    80000fb6:	00c9d513          	srli	a0,s3,0xc
    80000fba:	1ff57513          	andi	a0,a0,511
    80000fbe:	050e                	slli	a0,a0,0x3
    80000fc0:	9526                	add	a0,a0,s1
}
    80000fc2:	70e2                	ld	ra,56(sp)
    80000fc4:	7442                	ld	s0,48(sp)
    80000fc6:	74a2                	ld	s1,40(sp)
    80000fc8:	7902                	ld	s2,32(sp)
    80000fca:	69e2                	ld	s3,24(sp)
    80000fcc:	6a42                	ld	s4,16(sp)
    80000fce:	6aa2                	ld	s5,8(sp)
    80000fd0:	6b02                	ld	s6,0(sp)
    80000fd2:	6121                	addi	sp,sp,64
    80000fd4:	8082                	ret
        return 0;
    80000fd6:	4501                	li	a0,0
    80000fd8:	b7ed                	j	80000fc2 <walk+0x82>

0000000080000fda <walkaddr>:
walkaddr(pagetable_t pagetable, uint64 va)
{
  pte_t *pte;
  uint64 pa;

  if(va >= MAXVA)
    80000fda:	57fd                	li	a5,-1
    80000fdc:	83e9                	srli	a5,a5,0x1a
    80000fde:	00b7f463          	bgeu	a5,a1,80000fe6 <walkaddr+0xc>
    return 0;
    80000fe2:	4501                	li	a0,0
    return 0;
  if((*pte & PTE_U) == 0)
    return 0;
  pa = PTE2PA(*pte);
  return pa;
}
    80000fe4:	8082                	ret
{
    80000fe6:	1141                	addi	sp,sp,-16
    80000fe8:	e406                	sd	ra,8(sp)
    80000fea:	e022                	sd	s0,0(sp)
    80000fec:	0800                	addi	s0,sp,16
  pte = walk(pagetable, va, 0);
    80000fee:	4601                	li	a2,0
    80000ff0:	f51ff0ef          	jal	80000f40 <walk>
  if(pte == 0)
    80000ff4:	c105                	beqz	a0,80001014 <walkaddr+0x3a>
  if((*pte & PTE_V) == 0)
    80000ff6:	611c                	ld	a5,0(a0)
  if((*pte & PTE_U) == 0)
    80000ff8:	0117f693          	andi	a3,a5,17
    80000ffc:	4745                	li	a4,17
    return 0;
    80000ffe:	4501                	li	a0,0
  if((*pte & PTE_U) == 0)
    80001000:	00e68663          	beq	a3,a4,8000100c <walkaddr+0x32>
}
    80001004:	60a2                	ld	ra,8(sp)
    80001006:	6402                	ld	s0,0(sp)
    80001008:	0141                	addi	sp,sp,16
    8000100a:	8082                	ret
  pa = PTE2PA(*pte);
    8000100c:	83a9                	srli	a5,a5,0xa
    8000100e:	00c79513          	slli	a0,a5,0xc
  return pa;
    80001012:	bfcd                	j	80001004 <walkaddr+0x2a>
    return 0;
    80001014:	4501                	li	a0,0
    80001016:	b7fd                	j	80001004 <walkaddr+0x2a>

0000000080001018 <mappages>:
// va and size MUST be page-aligned.
// Returns 0 on success, -1 if walk() couldn't
// allocate a needed page-table page.
int
mappages(pagetable_t pagetable, uint64 va, uint64 size, uint64 pa, int perm)
{
    80001018:	715d                	addi	sp,sp,-80
    8000101a:	e486                	sd	ra,72(sp)
    8000101c:	e0a2                	sd	s0,64(sp)
    8000101e:	fc26                	sd	s1,56(sp)
    80001020:	f84a                	sd	s2,48(sp)
    80001022:	f44e                	sd	s3,40(sp)
    80001024:	f052                	sd	s4,32(sp)
    80001026:	ec56                	sd	s5,24(sp)
    80001028:	e85a                	sd	s6,16(sp)
    8000102a:	e45e                	sd	s7,8(sp)
    8000102c:	0880                	addi	s0,sp,80
  uint64 a, last;
  pte_t *pte;

  if((va % PGSIZE) != 0)
    8000102e:	03459793          	slli	a5,a1,0x34
    80001032:	e7a9                	bnez	a5,8000107c <mappages+0x64>
    80001034:	8aaa                	mv	s5,a0
    80001036:	8b3a                	mv	s6,a4
    panic("mappages: va not aligned");

  if((size % PGSIZE) != 0)
    80001038:	03461793          	slli	a5,a2,0x34
    8000103c:	e7b1                	bnez	a5,80001088 <mappages+0x70>
    panic("mappages: size not aligned");

  if(size == 0)
    8000103e:	ca39                	beqz	a2,80001094 <mappages+0x7c>
    panic("mappages: size");
  
  a = va;
  last = va + size - PGSIZE;
    80001040:	77fd                	lui	a5,0xfffff
    80001042:	963e                	add	a2,a2,a5
    80001044:	00b609b3          	add	s3,a2,a1
  a = va;
    80001048:	892e                	mv	s2,a1
    8000104a:	40b68a33          	sub	s4,a3,a1
    if(*pte & PTE_V)
      panic("mappages: remap");
    *pte = PA2PTE(pa) | perm | PTE_V;
    if(a == last)
      break;
    a += PGSIZE;
    8000104e:	6b85                	lui	s7,0x1
    80001050:	014904b3          	add	s1,s2,s4
    if((pte = walk(pagetable, a, 1)) == 0)
    80001054:	4605                	li	a2,1
    80001056:	85ca                	mv	a1,s2
    80001058:	8556                	mv	a0,s5
    8000105a:	ee7ff0ef          	jal	80000f40 <walk>
    8000105e:	c539                	beqz	a0,800010ac <mappages+0x94>
    if(*pte & PTE_V)
    80001060:	611c                	ld	a5,0(a0)
    80001062:	8b85                	andi	a5,a5,1
    80001064:	ef95                	bnez	a5,800010a0 <mappages+0x88>
    *pte = PA2PTE(pa) | perm | PTE_V;
    80001066:	80b1                	srli	s1,s1,0xc
    80001068:	04aa                	slli	s1,s1,0xa
    8000106a:	0164e4b3          	or	s1,s1,s6
    8000106e:	0014e493          	ori	s1,s1,1
    80001072:	e104                	sd	s1,0(a0)
    if(a == last)
    80001074:	05390863          	beq	s2,s3,800010c4 <mappages+0xac>
    a += PGSIZE;
    80001078:	995e                	add	s2,s2,s7
    if((pte = walk(pagetable, a, 1)) == 0)
    8000107a:	bfd9                	j	80001050 <mappages+0x38>
    panic("mappages: va not aligned");
    8000107c:	00006517          	auipc	a0,0x6
    80001080:	03c50513          	addi	a0,a0,60 # 800070b8 <etext+0xb8>
    80001084:	f10ff0ef          	jal	80000794 <panic>
    panic("mappages: size not aligned");
    80001088:	00006517          	auipc	a0,0x6
    8000108c:	05050513          	addi	a0,a0,80 # 800070d8 <etext+0xd8>
    80001090:	f04ff0ef          	jal	80000794 <panic>
    panic("mappages: size");
    80001094:	00006517          	auipc	a0,0x6
    80001098:	06450513          	addi	a0,a0,100 # 800070f8 <etext+0xf8>
    8000109c:	ef8ff0ef          	jal	80000794 <panic>
      panic("mappages: remap");
    800010a0:	00006517          	auipc	a0,0x6
    800010a4:	06850513          	addi	a0,a0,104 # 80007108 <etext+0x108>
    800010a8:	eecff0ef          	jal	80000794 <panic>
      return -1;
    800010ac:	557d                	li	a0,-1
    pa += PGSIZE;
  }
  return 0;
}
    800010ae:	60a6                	ld	ra,72(sp)
    800010b0:	6406                	ld	s0,64(sp)
    800010b2:	74e2                	ld	s1,56(sp)
    800010b4:	7942                	ld	s2,48(sp)
    800010b6:	79a2                	ld	s3,40(sp)
    800010b8:	7a02                	ld	s4,32(sp)
    800010ba:	6ae2                	ld	s5,24(sp)
    800010bc:	6b42                	ld	s6,16(sp)
    800010be:	6ba2                	ld	s7,8(sp)
    800010c0:	6161                	addi	sp,sp,80
    800010c2:	8082                	ret
  return 0;
    800010c4:	4501                	li	a0,0
    800010c6:	b7e5                	j	800010ae <mappages+0x96>

00000000800010c8 <kvmmap>:
{
    800010c8:	1141                	addi	sp,sp,-16
    800010ca:	e406                	sd	ra,8(sp)
    800010cc:	e022                	sd	s0,0(sp)
    800010ce:	0800                	addi	s0,sp,16
    800010d0:	87b6                	mv	a5,a3
  if(mappages(kpgtbl, va, sz, pa, perm) != 0)
    800010d2:	86b2                	mv	a3,a2
    800010d4:	863e                	mv	a2,a5
    800010d6:	f43ff0ef          	jal	80001018 <mappages>
    800010da:	e509                	bnez	a0,800010e4 <kvmmap+0x1c>
}
    800010dc:	60a2                	ld	ra,8(sp)
    800010de:	6402                	ld	s0,0(sp)
    800010e0:	0141                	addi	sp,sp,16
    800010e2:	8082                	ret
    panic("kvmmap");
    800010e4:	00006517          	auipc	a0,0x6
    800010e8:	03450513          	addi	a0,a0,52 # 80007118 <etext+0x118>
    800010ec:	ea8ff0ef          	jal	80000794 <panic>

00000000800010f0 <kvmmake>:
{
    800010f0:	1101                	addi	sp,sp,-32
    800010f2:	ec06                	sd	ra,24(sp)
    800010f4:	e822                	sd	s0,16(sp)
    800010f6:	e426                	sd	s1,8(sp)
    800010f8:	e04a                	sd	s2,0(sp)
    800010fa:	1000                	addi	s0,sp,32
  kpgtbl = (pagetable_t) kalloc();
    800010fc:	a29ff0ef          	jal	80000b24 <kalloc>
    80001100:	84aa                	mv	s1,a0
  memset(kpgtbl, 0, PGSIZE);
    80001102:	6605                	lui	a2,0x1
    80001104:	4581                	li	a1,0
    80001106:	bc3ff0ef          	jal	80000cc8 <memset>
  kvmmap(kpgtbl, UART0, UART0, PGSIZE, PTE_R | PTE_W);
    8000110a:	4719                	li	a4,6
    8000110c:	6685                	lui	a3,0x1
    8000110e:	10000637          	lui	a2,0x10000
    80001112:	100005b7          	lui	a1,0x10000
    80001116:	8526                	mv	a0,s1
    80001118:	fb1ff0ef          	jal	800010c8 <kvmmap>
  kvmmap(kpgtbl, VIRTIO0, VIRTIO0, PGSIZE, PTE_R | PTE_W);
    8000111c:	4719                	li	a4,6
    8000111e:	6685                	lui	a3,0x1
    80001120:	10001637          	lui	a2,0x10001
    80001124:	100015b7          	lui	a1,0x10001
    80001128:	8526                	mv	a0,s1
    8000112a:	f9fff0ef          	jal	800010c8 <kvmmap>
  kvmmap(kpgtbl, PLIC, PLIC, 0x4000000, PTE_R | PTE_W);
    8000112e:	4719                	li	a4,6
    80001130:	040006b7          	lui	a3,0x4000
    80001134:	0c000637          	lui	a2,0xc000
    80001138:	0c0005b7          	lui	a1,0xc000
    8000113c:	8526                	mv	a0,s1
    8000113e:	f8bff0ef          	jal	800010c8 <kvmmap>
  kvmmap(kpgtbl, KERNBASE, KERNBASE, (uint64)etext-KERNBASE, PTE_R | PTE_X);
    80001142:	00006917          	auipc	s2,0x6
    80001146:	ebe90913          	addi	s2,s2,-322 # 80007000 <etext>
    8000114a:	4729                	li	a4,10
    8000114c:	80006697          	auipc	a3,0x80006
    80001150:	eb468693          	addi	a3,a3,-332 # 7000 <_entry-0x7fff9000>
    80001154:	4605                	li	a2,1
    80001156:	067e                	slli	a2,a2,0x1f
    80001158:	85b2                	mv	a1,a2
    8000115a:	8526                	mv	a0,s1
    8000115c:	f6dff0ef          	jal	800010c8 <kvmmap>
  kvmmap(kpgtbl, (uint64)etext, (uint64)etext, PHYSTOP-(uint64)etext, PTE_R | PTE_W);
    80001160:	46c5                	li	a3,17
    80001162:	06ee                	slli	a3,a3,0x1b
    80001164:	4719                	li	a4,6
    80001166:	412686b3          	sub	a3,a3,s2
    8000116a:	864a                	mv	a2,s2
    8000116c:	85ca                	mv	a1,s2
    8000116e:	8526                	mv	a0,s1
    80001170:	f59ff0ef          	jal	800010c8 <kvmmap>
  kvmmap(kpgtbl, TRAMPOLINE, (uint64)trampoline, PGSIZE, PTE_R | PTE_X);
    80001174:	4729                	li	a4,10
    80001176:	6685                	lui	a3,0x1
    80001178:	00005617          	auipc	a2,0x5
    8000117c:	e8860613          	addi	a2,a2,-376 # 80006000 <_trampoline>
    80001180:	040005b7          	lui	a1,0x4000
    80001184:	15fd                	addi	a1,a1,-1 # 3ffffff <_entry-0x7c000001>
    80001186:	05b2                	slli	a1,a1,0xc
    80001188:	8526                	mv	a0,s1
    8000118a:	f3fff0ef          	jal	800010c8 <kvmmap>
  proc_mapstacks(kpgtbl);
    8000118e:	8526                	mv	a0,s1
    80001190:	5da000ef          	jal	8000176a <proc_mapstacks>
}
    80001194:	8526                	mv	a0,s1
    80001196:	60e2                	ld	ra,24(sp)
    80001198:	6442                	ld	s0,16(sp)
    8000119a:	64a2                	ld	s1,8(sp)
    8000119c:	6902                	ld	s2,0(sp)
    8000119e:	6105                	addi	sp,sp,32
    800011a0:	8082                	ret

00000000800011a2 <kvminit>:
{
    800011a2:	1141                	addi	sp,sp,-16
    800011a4:	e406                	sd	ra,8(sp)
    800011a6:	e022                	sd	s0,0(sp)
    800011a8:	0800                	addi	s0,sp,16
  kernel_pagetable = kvmmake();
    800011aa:	f47ff0ef          	jal	800010f0 <kvmmake>
    800011ae:	00006797          	auipc	a5,0x6
    800011b2:	7ca7b123          	sd	a0,1986(a5) # 80007970 <kernel_pagetable>
}
    800011b6:	60a2                	ld	ra,8(sp)
    800011b8:	6402                	ld	s0,0(sp)
    800011ba:	0141                	addi	sp,sp,16
    800011bc:	8082                	ret

00000000800011be <uvmunmap>:
// Remove npages of mappings starting from va. va must be
// page-aligned. The mappings must exist.
// Optionally free the physical memory.
void
uvmunmap(pagetable_t pagetable, uint64 va, uint64 npages, int do_free)
{
    800011be:	715d                	addi	sp,sp,-80
    800011c0:	e486                	sd	ra,72(sp)
    800011c2:	e0a2                	sd	s0,64(sp)
    800011c4:	0880                	addi	s0,sp,80
  uint64 a;
  pte_t *pte;

  if((va % PGSIZE) != 0)
    800011c6:	03459793          	slli	a5,a1,0x34
    800011ca:	e39d                	bnez	a5,800011f0 <uvmunmap+0x32>
    800011cc:	f84a                	sd	s2,48(sp)
    800011ce:	f44e                	sd	s3,40(sp)
    800011d0:	f052                	sd	s4,32(sp)
    800011d2:	ec56                	sd	s5,24(sp)
    800011d4:	e85a                	sd	s6,16(sp)
    800011d6:	e45e                	sd	s7,8(sp)
    800011d8:	8a2a                	mv	s4,a0
    800011da:	892e                	mv	s2,a1
    800011dc:	8ab6                	mv	s5,a3
    panic("uvmunmap: not aligned");

  for(a = va; a < va + npages*PGSIZE; a += PGSIZE){
    800011de:	0632                	slli	a2,a2,0xc
    800011e0:	00b609b3          	add	s3,a2,a1
    if((pte = walk(pagetable, a, 0)) == 0)
      panic("uvmunmap: walk");
    if((*pte & PTE_V) == 0)
      panic("uvmunmap: not mapped");
    if(PTE_FLAGS(*pte) == PTE_V)
    800011e4:	4b85                	li	s7,1
  for(a = va; a < va + npages*PGSIZE; a += PGSIZE){
    800011e6:	6b05                	lui	s6,0x1
    800011e8:	0735ff63          	bgeu	a1,s3,80001266 <uvmunmap+0xa8>
    800011ec:	fc26                	sd	s1,56(sp)
    800011ee:	a0a9                	j	80001238 <uvmunmap+0x7a>
    800011f0:	fc26                	sd	s1,56(sp)
    800011f2:	f84a                	sd	s2,48(sp)
    800011f4:	f44e                	sd	s3,40(sp)
    800011f6:	f052                	sd	s4,32(sp)
    800011f8:	ec56                	sd	s5,24(sp)
    800011fa:	e85a                	sd	s6,16(sp)
    800011fc:	e45e                	sd	s7,8(sp)
    panic("uvmunmap: not aligned");
    800011fe:	00006517          	auipc	a0,0x6
    80001202:	f2250513          	addi	a0,a0,-222 # 80007120 <etext+0x120>
    80001206:	d8eff0ef          	jal	80000794 <panic>
      panic("uvmunmap: walk");
    8000120a:	00006517          	auipc	a0,0x6
    8000120e:	f2e50513          	addi	a0,a0,-210 # 80007138 <etext+0x138>
    80001212:	d82ff0ef          	jal	80000794 <panic>
      panic("uvmunmap: not mapped");
    80001216:	00006517          	auipc	a0,0x6
    8000121a:	f3250513          	addi	a0,a0,-206 # 80007148 <etext+0x148>
    8000121e:	d76ff0ef          	jal	80000794 <panic>
      panic("uvmunmap: not a leaf");
    80001222:	00006517          	auipc	a0,0x6
    80001226:	f3e50513          	addi	a0,a0,-194 # 80007160 <etext+0x160>
    8000122a:	d6aff0ef          	jal	80000794 <panic>
    if(do_free){
      uint64 pa = PTE2PA(*pte);
      kfree((void*)pa);
    }
    *pte = 0;
    8000122e:	0004b023          	sd	zero,0(s1)
  for(a = va; a < va + npages*PGSIZE; a += PGSIZE){
    80001232:	995a                	add	s2,s2,s6
    80001234:	03397863          	bgeu	s2,s3,80001264 <uvmunmap+0xa6>
    if((pte = walk(pagetable, a, 0)) == 0)
    80001238:	4601                	li	a2,0
    8000123a:	85ca                	mv	a1,s2
    8000123c:	8552                	mv	a0,s4
    8000123e:	d03ff0ef          	jal	80000f40 <walk>
    80001242:	84aa                	mv	s1,a0
    80001244:	d179                	beqz	a0,8000120a <uvmunmap+0x4c>
    if((*pte & PTE_V) == 0)
    80001246:	6108                	ld	a0,0(a0)
    80001248:	00157793          	andi	a5,a0,1
    8000124c:	d7e9                	beqz	a5,80001216 <uvmunmap+0x58>
    if(PTE_FLAGS(*pte) == PTE_V)
    8000124e:	3ff57793          	andi	a5,a0,1023
    80001252:	fd7788e3          	beq	a5,s7,80001222 <uvmunmap+0x64>
    if(do_free){
    80001256:	fc0a8ce3          	beqz	s5,8000122e <uvmunmap+0x70>
      uint64 pa = PTE2PA(*pte);
    8000125a:	8129                	srli	a0,a0,0xa
      kfree((void*)pa);
    8000125c:	0532                	slli	a0,a0,0xc
    8000125e:	fe4ff0ef          	jal	80000a42 <kfree>
    80001262:	b7f1                	j	8000122e <uvmunmap+0x70>
    80001264:	74e2                	ld	s1,56(sp)
    80001266:	7942                	ld	s2,48(sp)
    80001268:	79a2                	ld	s3,40(sp)
    8000126a:	7a02                	ld	s4,32(sp)
    8000126c:	6ae2                	ld	s5,24(sp)
    8000126e:	6b42                	ld	s6,16(sp)
    80001270:	6ba2                	ld	s7,8(sp)
  }
}
    80001272:	60a6                	ld	ra,72(sp)
    80001274:	6406                	ld	s0,64(sp)
    80001276:	6161                	addi	sp,sp,80
    80001278:	8082                	ret

000000008000127a <uvmcreate>:

// create an empty user page table.
// returns 0 if out of memory.
pagetable_t
uvmcreate()
{
    8000127a:	1101                	addi	sp,sp,-32
    8000127c:	ec06                	sd	ra,24(sp)
    8000127e:	e822                	sd	s0,16(sp)
    80001280:	e426                	sd	s1,8(sp)
    80001282:	1000                	addi	s0,sp,32
  pagetable_t pagetable;
  pagetable = (pagetable_t) kalloc();
    80001284:	8a1ff0ef          	jal	80000b24 <kalloc>
    80001288:	84aa                	mv	s1,a0
  if(pagetable == 0)
    8000128a:	c509                	beqz	a0,80001294 <uvmcreate+0x1a>
    return 0;
  memset(pagetable, 0, PGSIZE);
    8000128c:	6605                	lui	a2,0x1
    8000128e:	4581                	li	a1,0
    80001290:	a39ff0ef          	jal	80000cc8 <memset>
  return pagetable;
}
    80001294:	8526                	mv	a0,s1
    80001296:	60e2                	ld	ra,24(sp)
    80001298:	6442                	ld	s0,16(sp)
    8000129a:	64a2                	ld	s1,8(sp)
    8000129c:	6105                	addi	sp,sp,32
    8000129e:	8082                	ret

00000000800012a0 <uvmfirst>:
// Load the user initcode into address 0 of pagetable,
// for the very first process.
// sz must be less than a page.
void
uvmfirst(pagetable_t pagetable, uchar *src, uint sz)
{
    800012a0:	7179                	addi	sp,sp,-48
    800012a2:	f406                	sd	ra,40(sp)
    800012a4:	f022                	sd	s0,32(sp)
    800012a6:	ec26                	sd	s1,24(sp)
    800012a8:	e84a                	sd	s2,16(sp)
    800012aa:	e44e                	sd	s3,8(sp)
    800012ac:	e052                	sd	s4,0(sp)
    800012ae:	1800                	addi	s0,sp,48
  char *mem;

  if(sz >= PGSIZE)
    800012b0:	6785                	lui	a5,0x1
    800012b2:	04f67063          	bgeu	a2,a5,800012f2 <uvmfirst+0x52>
    800012b6:	8a2a                	mv	s4,a0
    800012b8:	89ae                	mv	s3,a1
    800012ba:	84b2                	mv	s1,a2
    panic("uvmfirst: more than a page");
  mem = kalloc();
    800012bc:	869ff0ef          	jal	80000b24 <kalloc>
    800012c0:	892a                	mv	s2,a0
  memset(mem, 0, PGSIZE);
    800012c2:	6605                	lui	a2,0x1
    800012c4:	4581                	li	a1,0
    800012c6:	a03ff0ef          	jal	80000cc8 <memset>
  mappages(pagetable, 0, PGSIZE, (uint64)mem, PTE_W|PTE_R|PTE_X|PTE_U);
    800012ca:	4779                	li	a4,30
    800012cc:	86ca                	mv	a3,s2
    800012ce:	6605                	lui	a2,0x1
    800012d0:	4581                	li	a1,0
    800012d2:	8552                	mv	a0,s4
    800012d4:	d45ff0ef          	jal	80001018 <mappages>
  memmove(mem, src, sz);
    800012d8:	8626                	mv	a2,s1
    800012da:	85ce                	mv	a1,s3
    800012dc:	854a                	mv	a0,s2
    800012de:	a47ff0ef          	jal	80000d24 <memmove>
}
    800012e2:	70a2                	ld	ra,40(sp)
    800012e4:	7402                	ld	s0,32(sp)
    800012e6:	64e2                	ld	s1,24(sp)
    800012e8:	6942                	ld	s2,16(sp)
    800012ea:	69a2                	ld	s3,8(sp)
    800012ec:	6a02                	ld	s4,0(sp)
    800012ee:	6145                	addi	sp,sp,48
    800012f0:	8082                	ret
    panic("uvmfirst: more than a page");
    800012f2:	00006517          	auipc	a0,0x6
    800012f6:	e8650513          	addi	a0,a0,-378 # 80007178 <etext+0x178>
    800012fa:	c9aff0ef          	jal	80000794 <panic>

00000000800012fe <uvmdealloc>:
// newsz.  oldsz and newsz need not be page-aligned, nor does newsz
// need to be less than oldsz.  oldsz can be larger than the actual
// process size.  Returns the new process size.
uint64
uvmdealloc(pagetable_t pagetable, uint64 oldsz, uint64 newsz)
{
    800012fe:	1101                	addi	sp,sp,-32
    80001300:	ec06                	sd	ra,24(sp)
    80001302:	e822                	sd	s0,16(sp)
    80001304:	e426                	sd	s1,8(sp)
    80001306:	1000                	addi	s0,sp,32
  if(newsz >= oldsz)
    return oldsz;
    80001308:	84ae                	mv	s1,a1
  if(newsz >= oldsz)
    8000130a:	00b67d63          	bgeu	a2,a1,80001324 <uvmdealloc+0x26>
    8000130e:	84b2                	mv	s1,a2

  if(PGROUNDUP(newsz) < PGROUNDUP(oldsz)){
    80001310:	6785                	lui	a5,0x1
    80001312:	17fd                	addi	a5,a5,-1 # fff <_entry-0x7ffff001>
    80001314:	00f60733          	add	a4,a2,a5
    80001318:	76fd                	lui	a3,0xfffff
    8000131a:	8f75                	and	a4,a4,a3
    8000131c:	97ae                	add	a5,a5,a1
    8000131e:	8ff5                	and	a5,a5,a3
    80001320:	00f76863          	bltu	a4,a5,80001330 <uvmdealloc+0x32>
    int npages = (PGROUNDUP(oldsz) - PGROUNDUP(newsz)) / PGSIZE;
    uvmunmap(pagetable, PGROUNDUP(newsz), npages, 1);
  }

  return newsz;
}
    80001324:	8526                	mv	a0,s1
    80001326:	60e2                	ld	ra,24(sp)
    80001328:	6442                	ld	s0,16(sp)
    8000132a:	64a2                	ld	s1,8(sp)
    8000132c:	6105                	addi	sp,sp,32
    8000132e:	8082                	ret
    int npages = (PGROUNDUP(oldsz) - PGROUNDUP(newsz)) / PGSIZE;
    80001330:	8f99                	sub	a5,a5,a4
    80001332:	83b1                	srli	a5,a5,0xc
    uvmunmap(pagetable, PGROUNDUP(newsz), npages, 1);
    80001334:	4685                	li	a3,1
    80001336:	0007861b          	sext.w	a2,a5
    8000133a:	85ba                	mv	a1,a4
    8000133c:	e83ff0ef          	jal	800011be <uvmunmap>
    80001340:	b7d5                	j	80001324 <uvmdealloc+0x26>

0000000080001342 <uvmalloc>:
  if(newsz < oldsz)
    80001342:	08b66f63          	bltu	a2,a1,800013e0 <uvmalloc+0x9e>
{
    80001346:	7139                	addi	sp,sp,-64
    80001348:	fc06                	sd	ra,56(sp)
    8000134a:	f822                	sd	s0,48(sp)
    8000134c:	ec4e                	sd	s3,24(sp)
    8000134e:	e852                	sd	s4,16(sp)
    80001350:	e456                	sd	s5,8(sp)
    80001352:	0080                	addi	s0,sp,64
    80001354:	8aaa                	mv	s5,a0
    80001356:	8a32                	mv	s4,a2
  oldsz = PGROUNDUP(oldsz);
    80001358:	6785                	lui	a5,0x1
    8000135a:	17fd                	addi	a5,a5,-1 # fff <_entry-0x7ffff001>
    8000135c:	95be                	add	a1,a1,a5
    8000135e:	77fd                	lui	a5,0xfffff
    80001360:	00f5f9b3          	and	s3,a1,a5
  for(a = oldsz; a < newsz; a += PGSIZE){
    80001364:	08c9f063          	bgeu	s3,a2,800013e4 <uvmalloc+0xa2>
    80001368:	f426                	sd	s1,40(sp)
    8000136a:	f04a                	sd	s2,32(sp)
    8000136c:	e05a                	sd	s6,0(sp)
    8000136e:	894e                	mv	s2,s3
    if(mappages(pagetable, a, PGSIZE, (uint64)mem, PTE_R|PTE_U|xperm) != 0){
    80001370:	0126eb13          	ori	s6,a3,18
    mem = kalloc();
    80001374:	fb0ff0ef          	jal	80000b24 <kalloc>
    80001378:	84aa                	mv	s1,a0
    if(mem == 0){
    8000137a:	c515                	beqz	a0,800013a6 <uvmalloc+0x64>
    memset(mem, 0, PGSIZE);
    8000137c:	6605                	lui	a2,0x1
    8000137e:	4581                	li	a1,0
    80001380:	949ff0ef          	jal	80000cc8 <memset>
    if(mappages(pagetable, a, PGSIZE, (uint64)mem, PTE_R|PTE_U|xperm) != 0){
    80001384:	875a                	mv	a4,s6
    80001386:	86a6                	mv	a3,s1
    80001388:	6605                	lui	a2,0x1
    8000138a:	85ca                	mv	a1,s2
    8000138c:	8556                	mv	a0,s5
    8000138e:	c8bff0ef          	jal	80001018 <mappages>
    80001392:	e915                	bnez	a0,800013c6 <uvmalloc+0x84>
  for(a = oldsz; a < newsz; a += PGSIZE){
    80001394:	6785                	lui	a5,0x1
    80001396:	993e                	add	s2,s2,a5
    80001398:	fd496ee3          	bltu	s2,s4,80001374 <uvmalloc+0x32>
  return newsz;
    8000139c:	8552                	mv	a0,s4
    8000139e:	74a2                	ld	s1,40(sp)
    800013a0:	7902                	ld	s2,32(sp)
    800013a2:	6b02                	ld	s6,0(sp)
    800013a4:	a811                	j	800013b8 <uvmalloc+0x76>
      uvmdealloc(pagetable, a, oldsz);
    800013a6:	864e                	mv	a2,s3
    800013a8:	85ca                	mv	a1,s2
    800013aa:	8556                	mv	a0,s5
    800013ac:	f53ff0ef          	jal	800012fe <uvmdealloc>
      return 0;
    800013b0:	4501                	li	a0,0
    800013b2:	74a2                	ld	s1,40(sp)
    800013b4:	7902                	ld	s2,32(sp)
    800013b6:	6b02                	ld	s6,0(sp)
}
    800013b8:	70e2                	ld	ra,56(sp)
    800013ba:	7442                	ld	s0,48(sp)
    800013bc:	69e2                	ld	s3,24(sp)
    800013be:	6a42                	ld	s4,16(sp)
    800013c0:	6aa2                	ld	s5,8(sp)
    800013c2:	6121                	addi	sp,sp,64
    800013c4:	8082                	ret
      kfree(mem);
    800013c6:	8526                	mv	a0,s1
    800013c8:	e7aff0ef          	jal	80000a42 <kfree>
      uvmdealloc(pagetable, a, oldsz);
    800013cc:	864e                	mv	a2,s3
    800013ce:	85ca                	mv	a1,s2
    800013d0:	8556                	mv	a0,s5
    800013d2:	f2dff0ef          	jal	800012fe <uvmdealloc>
      return 0;
    800013d6:	4501                	li	a0,0
    800013d8:	74a2                	ld	s1,40(sp)
    800013da:	7902                	ld	s2,32(sp)
    800013dc:	6b02                	ld	s6,0(sp)
    800013de:	bfe9                	j	800013b8 <uvmalloc+0x76>
    return oldsz;
    800013e0:	852e                	mv	a0,a1
}
    800013e2:	8082                	ret
  return newsz;
    800013e4:	8532                	mv	a0,a2
    800013e6:	bfc9                	j	800013b8 <uvmalloc+0x76>

00000000800013e8 <freewalk>:

// Recursively free page-table pages.
// All leaf mappings must already have been removed.
void
freewalk(pagetable_t pagetable)
{
    800013e8:	7179                	addi	sp,sp,-48
    800013ea:	f406                	sd	ra,40(sp)
    800013ec:	f022                	sd	s0,32(sp)
    800013ee:	ec26                	sd	s1,24(sp)
    800013f0:	e84a                	sd	s2,16(sp)
    800013f2:	e44e                	sd	s3,8(sp)
    800013f4:	e052                	sd	s4,0(sp)
    800013f6:	1800                	addi	s0,sp,48
    800013f8:	8a2a                	mv	s4,a0
  // there are 2^9 = 512 PTEs in a page table.
  for(int i = 0; i < 512; i++){
    800013fa:	84aa                	mv	s1,a0
    800013fc:	6905                	lui	s2,0x1
    800013fe:	992a                	add	s2,s2,a0
    pte_t pte = pagetable[i];
    if((pte & PTE_V) && (pte & (PTE_R|PTE_W|PTE_X)) == 0){
    80001400:	4985                	li	s3,1
    80001402:	a819                	j	80001418 <freewalk+0x30>
      // this PTE points to a lower-level page table.
      uint64 child = PTE2PA(pte);
    80001404:	83a9                	srli	a5,a5,0xa
      freewalk((pagetable_t)child);
    80001406:	00c79513          	slli	a0,a5,0xc
    8000140a:	fdfff0ef          	jal	800013e8 <freewalk>
      pagetable[i] = 0;
    8000140e:	0004b023          	sd	zero,0(s1)
  for(int i = 0; i < 512; i++){
    80001412:	04a1                	addi	s1,s1,8
    80001414:	01248f63          	beq	s1,s2,80001432 <freewalk+0x4a>
    pte_t pte = pagetable[i];
    80001418:	609c                	ld	a5,0(s1)
    if((pte & PTE_V) && (pte & (PTE_R|PTE_W|PTE_X)) == 0){
    8000141a:	00f7f713          	andi	a4,a5,15
    8000141e:	ff3703e3          	beq	a4,s3,80001404 <freewalk+0x1c>
    } else if(pte & PTE_V){
    80001422:	8b85                	andi	a5,a5,1
    80001424:	d7fd                	beqz	a5,80001412 <freewalk+0x2a>
      panic("freewalk: leaf");
    80001426:	00006517          	auipc	a0,0x6
    8000142a:	d7250513          	addi	a0,a0,-654 # 80007198 <etext+0x198>
    8000142e:	b66ff0ef          	jal	80000794 <panic>
    }
  }
  kfree((void*)pagetable);
    80001432:	8552                	mv	a0,s4
    80001434:	e0eff0ef          	jal	80000a42 <kfree>
}
    80001438:	70a2                	ld	ra,40(sp)
    8000143a:	7402                	ld	s0,32(sp)
    8000143c:	64e2                	ld	s1,24(sp)
    8000143e:	6942                	ld	s2,16(sp)
    80001440:	69a2                	ld	s3,8(sp)
    80001442:	6a02                	ld	s4,0(sp)
    80001444:	6145                	addi	sp,sp,48
    80001446:	8082                	ret

0000000080001448 <uvmfree>:

// Free user memory pages,
// then free page-table pages.
void
uvmfree(pagetable_t pagetable, uint64 sz)
{
    80001448:	1101                	addi	sp,sp,-32
    8000144a:	ec06                	sd	ra,24(sp)
    8000144c:	e822                	sd	s0,16(sp)
    8000144e:	e426                	sd	s1,8(sp)
    80001450:	1000                	addi	s0,sp,32
    80001452:	84aa                	mv	s1,a0
  if(sz > 0)
    80001454:	e989                	bnez	a1,80001466 <uvmfree+0x1e>
    uvmunmap(pagetable, 0, PGROUNDUP(sz)/PGSIZE, 1);
  freewalk(pagetable);
    80001456:	8526                	mv	a0,s1
    80001458:	f91ff0ef          	jal	800013e8 <freewalk>
}
    8000145c:	60e2                	ld	ra,24(sp)
    8000145e:	6442                	ld	s0,16(sp)
    80001460:	64a2                	ld	s1,8(sp)
    80001462:	6105                	addi	sp,sp,32
    80001464:	8082                	ret
    uvmunmap(pagetable, 0, PGROUNDUP(sz)/PGSIZE, 1);
    80001466:	6785                	lui	a5,0x1
    80001468:	17fd                	addi	a5,a5,-1 # fff <_entry-0x7ffff001>
    8000146a:	95be                	add	a1,a1,a5
    8000146c:	4685                	li	a3,1
    8000146e:	00c5d613          	srli	a2,a1,0xc
    80001472:	4581                	li	a1,0
    80001474:	d4bff0ef          	jal	800011be <uvmunmap>
    80001478:	bff9                	j	80001456 <uvmfree+0xe>

000000008000147a <uvmcopy>:
  pte_t *pte;
  uint64 pa, i;
  uint flags;
  char *mem;

  for(i = 0; i < sz; i += PGSIZE){
    8000147a:	c65d                	beqz	a2,80001528 <uvmcopy+0xae>
{
    8000147c:	715d                	addi	sp,sp,-80
    8000147e:	e486                	sd	ra,72(sp)
    80001480:	e0a2                	sd	s0,64(sp)
    80001482:	fc26                	sd	s1,56(sp)
    80001484:	f84a                	sd	s2,48(sp)
    80001486:	f44e                	sd	s3,40(sp)
    80001488:	f052                	sd	s4,32(sp)
    8000148a:	ec56                	sd	s5,24(sp)
    8000148c:	e85a                	sd	s6,16(sp)
    8000148e:	e45e                	sd	s7,8(sp)
    80001490:	0880                	addi	s0,sp,80
    80001492:	8b2a                	mv	s6,a0
    80001494:	8aae                	mv	s5,a1
    80001496:	8a32                	mv	s4,a2
  for(i = 0; i < sz; i += PGSIZE){
    80001498:	4981                	li	s3,0
    if((pte = walk(old, i, 0)) == 0)
    8000149a:	4601                	li	a2,0
    8000149c:	85ce                	mv	a1,s3
    8000149e:	855a                	mv	a0,s6
    800014a0:	aa1ff0ef          	jal	80000f40 <walk>
    800014a4:	c121                	beqz	a0,800014e4 <uvmcopy+0x6a>
      panic("uvmcopy: pte should exist");
    if((*pte & PTE_V) == 0)
    800014a6:	6118                	ld	a4,0(a0)
    800014a8:	00177793          	andi	a5,a4,1
    800014ac:	c3b1                	beqz	a5,800014f0 <uvmcopy+0x76>
      panic("uvmcopy: page not present");
    pa = PTE2PA(*pte);
    800014ae:	00a75593          	srli	a1,a4,0xa
    800014b2:	00c59b93          	slli	s7,a1,0xc
    flags = PTE_FLAGS(*pte);
    800014b6:	3ff77493          	andi	s1,a4,1023
    if((mem = kalloc()) == 0)
    800014ba:	e6aff0ef          	jal	80000b24 <kalloc>
    800014be:	892a                	mv	s2,a0
    800014c0:	c129                	beqz	a0,80001502 <uvmcopy+0x88>
      goto err;
    memmove(mem, (char*)pa, PGSIZE);
    800014c2:	6605                	lui	a2,0x1
    800014c4:	85de                	mv	a1,s7
    800014c6:	85fff0ef          	jal	80000d24 <memmove>
    if(mappages(new, i, PGSIZE, (uint64)mem, flags) != 0){
    800014ca:	8726                	mv	a4,s1
    800014cc:	86ca                	mv	a3,s2
    800014ce:	6605                	lui	a2,0x1
    800014d0:	85ce                	mv	a1,s3
    800014d2:	8556                	mv	a0,s5
    800014d4:	b45ff0ef          	jal	80001018 <mappages>
    800014d8:	e115                	bnez	a0,800014fc <uvmcopy+0x82>
  for(i = 0; i < sz; i += PGSIZE){
    800014da:	6785                	lui	a5,0x1
    800014dc:	99be                	add	s3,s3,a5
    800014de:	fb49eee3          	bltu	s3,s4,8000149a <uvmcopy+0x20>
    800014e2:	a805                	j	80001512 <uvmcopy+0x98>
      panic("uvmcopy: pte should exist");
    800014e4:	00006517          	auipc	a0,0x6
    800014e8:	cc450513          	addi	a0,a0,-828 # 800071a8 <etext+0x1a8>
    800014ec:	aa8ff0ef          	jal	80000794 <panic>
      panic("uvmcopy: page not present");
    800014f0:	00006517          	auipc	a0,0x6
    800014f4:	cd850513          	addi	a0,a0,-808 # 800071c8 <etext+0x1c8>
    800014f8:	a9cff0ef          	jal	80000794 <panic>
      kfree(mem);
    800014fc:	854a                	mv	a0,s2
    800014fe:	d44ff0ef          	jal	80000a42 <kfree>
    }
  }
  return 0;

 err:
  uvmunmap(new, 0, i / PGSIZE, 1);
    80001502:	4685                	li	a3,1
    80001504:	00c9d613          	srli	a2,s3,0xc
    80001508:	4581                	li	a1,0
    8000150a:	8556                	mv	a0,s5
    8000150c:	cb3ff0ef          	jal	800011be <uvmunmap>
  return -1;
    80001510:	557d                	li	a0,-1
}
    80001512:	60a6                	ld	ra,72(sp)
    80001514:	6406                	ld	s0,64(sp)
    80001516:	74e2                	ld	s1,56(sp)
    80001518:	7942                	ld	s2,48(sp)
    8000151a:	79a2                	ld	s3,40(sp)
    8000151c:	7a02                	ld	s4,32(sp)
    8000151e:	6ae2                	ld	s5,24(sp)
    80001520:	6b42                	ld	s6,16(sp)
    80001522:	6ba2                	ld	s7,8(sp)
    80001524:	6161                	addi	sp,sp,80
    80001526:	8082                	ret
  return 0;
    80001528:	4501                	li	a0,0
}
    8000152a:	8082                	ret

000000008000152c <uvmclear>:

// mark a PTE invalid for user access.
// used by exec for the user stack guard page.
void
uvmclear(pagetable_t pagetable, uint64 va)
{
    8000152c:	1141                	addi	sp,sp,-16
    8000152e:	e406                	sd	ra,8(sp)
    80001530:	e022                	sd	s0,0(sp)
    80001532:	0800                	addi	s0,sp,16
  pte_t *pte;
  
  pte = walk(pagetable, va, 0);
    80001534:	4601                	li	a2,0
    80001536:	a0bff0ef          	jal	80000f40 <walk>
  if(pte == 0)
    8000153a:	c901                	beqz	a0,8000154a <uvmclear+0x1e>
    panic("uvmclear");
  *pte &= ~PTE_U;
    8000153c:	611c                	ld	a5,0(a0)
    8000153e:	9bbd                	andi	a5,a5,-17
    80001540:	e11c                	sd	a5,0(a0)
}
    80001542:	60a2                	ld	ra,8(sp)
    80001544:	6402                	ld	s0,0(sp)
    80001546:	0141                	addi	sp,sp,16
    80001548:	8082                	ret
    panic("uvmclear");
    8000154a:	00006517          	auipc	a0,0x6
    8000154e:	c9e50513          	addi	a0,a0,-866 # 800071e8 <etext+0x1e8>
    80001552:	a42ff0ef          	jal	80000794 <panic>

0000000080001556 <copyout>:
copyout(pagetable_t pagetable, uint64 dstva, char *src, uint64 len)
{
  uint64 n, va0, pa0;
  pte_t *pte;

  while(len > 0){
    80001556:	cad1                	beqz	a3,800015ea <copyout+0x94>
{
    80001558:	711d                	addi	sp,sp,-96
    8000155a:	ec86                	sd	ra,88(sp)
    8000155c:	e8a2                	sd	s0,80(sp)
    8000155e:	e4a6                	sd	s1,72(sp)
    80001560:	fc4e                	sd	s3,56(sp)
    80001562:	f456                	sd	s5,40(sp)
    80001564:	f05a                	sd	s6,32(sp)
    80001566:	ec5e                	sd	s7,24(sp)
    80001568:	1080                	addi	s0,sp,96
    8000156a:	8baa                	mv	s7,a0
    8000156c:	8aae                	mv	s5,a1
    8000156e:	8b32                	mv	s6,a2
    80001570:	89b6                	mv	s3,a3
    va0 = PGROUNDDOWN(dstva);
    80001572:	74fd                	lui	s1,0xfffff
    80001574:	8ced                	and	s1,s1,a1
    if(va0 >= MAXVA)
    80001576:	57fd                	li	a5,-1
    80001578:	83e9                	srli	a5,a5,0x1a
    8000157a:	0697ea63          	bltu	a5,s1,800015ee <copyout+0x98>
    8000157e:	e0ca                	sd	s2,64(sp)
    80001580:	f852                	sd	s4,48(sp)
    80001582:	e862                	sd	s8,16(sp)
    80001584:	e466                	sd	s9,8(sp)
    80001586:	e06a                	sd	s10,0(sp)
      return -1;
    pte = walk(pagetable, va0, 0);
    if(pte == 0 || (*pte & PTE_V) == 0 || (*pte & PTE_U) == 0 ||
    80001588:	4cd5                	li	s9,21
    8000158a:	6d05                	lui	s10,0x1
    if(va0 >= MAXVA)
    8000158c:	8c3e                	mv	s8,a5
    8000158e:	a025                	j	800015b6 <copyout+0x60>
       (*pte & PTE_W) == 0)
      return -1;
    pa0 = PTE2PA(*pte);
    80001590:	83a9                	srli	a5,a5,0xa
    80001592:	07b2                	slli	a5,a5,0xc
    n = PGSIZE - (dstva - va0);
    if(n > len)
      n = len;
    memmove((void *)(pa0 + (dstva - va0)), src, n);
    80001594:	409a8533          	sub	a0,s5,s1
    80001598:	0009061b          	sext.w	a2,s2
    8000159c:	85da                	mv	a1,s6
    8000159e:	953e                	add	a0,a0,a5
    800015a0:	f84ff0ef          	jal	80000d24 <memmove>

    len -= n;
    800015a4:	412989b3          	sub	s3,s3,s2
    src += n;
    800015a8:	9b4a                	add	s6,s6,s2
  while(len > 0){
    800015aa:	02098963          	beqz	s3,800015dc <copyout+0x86>
    if(va0 >= MAXVA)
    800015ae:	054c6263          	bltu	s8,s4,800015f2 <copyout+0x9c>
    800015b2:	84d2                	mv	s1,s4
    800015b4:	8ad2                	mv	s5,s4
    pte = walk(pagetable, va0, 0);
    800015b6:	4601                	li	a2,0
    800015b8:	85a6                	mv	a1,s1
    800015ba:	855e                	mv	a0,s7
    800015bc:	985ff0ef          	jal	80000f40 <walk>
    if(pte == 0 || (*pte & PTE_V) == 0 || (*pte & PTE_U) == 0 ||
    800015c0:	c121                	beqz	a0,80001600 <copyout+0xaa>
    800015c2:	611c                	ld	a5,0(a0)
    800015c4:	0157f713          	andi	a4,a5,21
    800015c8:	05971b63          	bne	a4,s9,8000161e <copyout+0xc8>
    n = PGSIZE - (dstva - va0);
    800015cc:	01a48a33          	add	s4,s1,s10
    800015d0:	415a0933          	sub	s2,s4,s5
    if(n > len)
    800015d4:	fb29fee3          	bgeu	s3,s2,80001590 <copyout+0x3a>
    800015d8:	894e                	mv	s2,s3
    800015da:	bf5d                	j	80001590 <copyout+0x3a>
    dstva = va0 + PGSIZE;
  }
  return 0;
    800015dc:	4501                	li	a0,0
    800015de:	6906                	ld	s2,64(sp)
    800015e0:	7a42                	ld	s4,48(sp)
    800015e2:	6c42                	ld	s8,16(sp)
    800015e4:	6ca2                	ld	s9,8(sp)
    800015e6:	6d02                	ld	s10,0(sp)
    800015e8:	a015                	j	8000160c <copyout+0xb6>
    800015ea:	4501                	li	a0,0
}
    800015ec:	8082                	ret
      return -1;
    800015ee:	557d                	li	a0,-1
    800015f0:	a831                	j	8000160c <copyout+0xb6>
    800015f2:	557d                	li	a0,-1
    800015f4:	6906                	ld	s2,64(sp)
    800015f6:	7a42                	ld	s4,48(sp)
    800015f8:	6c42                	ld	s8,16(sp)
    800015fa:	6ca2                	ld	s9,8(sp)
    800015fc:	6d02                	ld	s10,0(sp)
    800015fe:	a039                	j	8000160c <copyout+0xb6>
      return -1;
    80001600:	557d                	li	a0,-1
    80001602:	6906                	ld	s2,64(sp)
    80001604:	7a42                	ld	s4,48(sp)
    80001606:	6c42                	ld	s8,16(sp)
    80001608:	6ca2                	ld	s9,8(sp)
    8000160a:	6d02                	ld	s10,0(sp)
}
    8000160c:	60e6                	ld	ra,88(sp)
    8000160e:	6446                	ld	s0,80(sp)
    80001610:	64a6                	ld	s1,72(sp)
    80001612:	79e2                	ld	s3,56(sp)
    80001614:	7aa2                	ld	s5,40(sp)
    80001616:	7b02                	ld	s6,32(sp)
    80001618:	6be2                	ld	s7,24(sp)
    8000161a:	6125                	addi	sp,sp,96
    8000161c:	8082                	ret
      return -1;
    8000161e:	557d                	li	a0,-1
    80001620:	6906                	ld	s2,64(sp)
    80001622:	7a42                	ld	s4,48(sp)
    80001624:	6c42                	ld	s8,16(sp)
    80001626:	6ca2                	ld	s9,8(sp)
    80001628:	6d02                	ld	s10,0(sp)
    8000162a:	b7cd                	j	8000160c <copyout+0xb6>

000000008000162c <copyin>:
int
copyin(pagetable_t pagetable, char *dst, uint64 srcva, uint64 len)
{
  uint64 n, va0, pa0;

  while(len > 0){
    8000162c:	c6a5                	beqz	a3,80001694 <copyin+0x68>
{
    8000162e:	715d                	addi	sp,sp,-80
    80001630:	e486                	sd	ra,72(sp)
    80001632:	e0a2                	sd	s0,64(sp)
    80001634:	fc26                	sd	s1,56(sp)
    80001636:	f84a                	sd	s2,48(sp)
    80001638:	f44e                	sd	s3,40(sp)
    8000163a:	f052                	sd	s4,32(sp)
    8000163c:	ec56                	sd	s5,24(sp)
    8000163e:	e85a                	sd	s6,16(sp)
    80001640:	e45e                	sd	s7,8(sp)
    80001642:	e062                	sd	s8,0(sp)
    80001644:	0880                	addi	s0,sp,80
    80001646:	8b2a                	mv	s6,a0
    80001648:	8a2e                	mv	s4,a1
    8000164a:	8c32                	mv	s8,a2
    8000164c:	89b6                	mv	s3,a3
    va0 = PGROUNDDOWN(srcva);
    8000164e:	7bfd                	lui	s7,0xfffff
    pa0 = walkaddr(pagetable, va0);
    if(pa0 == 0)
      return -1;
    n = PGSIZE - (srcva - va0);
    80001650:	6a85                	lui	s5,0x1
    80001652:	a00d                	j	80001674 <copyin+0x48>
    if(n > len)
      n = len;
    memmove(dst, (void *)(pa0 + (srcva - va0)), n);
    80001654:	018505b3          	add	a1,a0,s8
    80001658:	0004861b          	sext.w	a2,s1
    8000165c:	412585b3          	sub	a1,a1,s2
    80001660:	8552                	mv	a0,s4
    80001662:	ec2ff0ef          	jal	80000d24 <memmove>

    len -= n;
    80001666:	409989b3          	sub	s3,s3,s1
    dst += n;
    8000166a:	9a26                	add	s4,s4,s1
    srcva = va0 + PGSIZE;
    8000166c:	01590c33          	add	s8,s2,s5
  while(len > 0){
    80001670:	02098063          	beqz	s3,80001690 <copyin+0x64>
    va0 = PGROUNDDOWN(srcva);
    80001674:	017c7933          	and	s2,s8,s7
    pa0 = walkaddr(pagetable, va0);
    80001678:	85ca                	mv	a1,s2
    8000167a:	855a                	mv	a0,s6
    8000167c:	95fff0ef          	jal	80000fda <walkaddr>
    if(pa0 == 0)
    80001680:	cd01                	beqz	a0,80001698 <copyin+0x6c>
    n = PGSIZE - (srcva - va0);
    80001682:	418904b3          	sub	s1,s2,s8
    80001686:	94d6                	add	s1,s1,s5
    if(n > len)
    80001688:	fc99f6e3          	bgeu	s3,s1,80001654 <copyin+0x28>
    8000168c:	84ce                	mv	s1,s3
    8000168e:	b7d9                	j	80001654 <copyin+0x28>
  }
  return 0;
    80001690:	4501                	li	a0,0
    80001692:	a021                	j	8000169a <copyin+0x6e>
    80001694:	4501                	li	a0,0
}
    80001696:	8082                	ret
      return -1;
    80001698:	557d                	li	a0,-1
}
    8000169a:	60a6                	ld	ra,72(sp)
    8000169c:	6406                	ld	s0,64(sp)
    8000169e:	74e2                	ld	s1,56(sp)
    800016a0:	7942                	ld	s2,48(sp)
    800016a2:	79a2                	ld	s3,40(sp)
    800016a4:	7a02                	ld	s4,32(sp)
    800016a6:	6ae2                	ld	s5,24(sp)
    800016a8:	6b42                	ld	s6,16(sp)
    800016aa:	6ba2                	ld	s7,8(sp)
    800016ac:	6c02                	ld	s8,0(sp)
    800016ae:	6161                	addi	sp,sp,80
    800016b0:	8082                	ret

00000000800016b2 <copyinstr>:
copyinstr(pagetable_t pagetable, char *dst, uint64 srcva, uint64 max)
{
  uint64 n, va0, pa0;
  int got_null = 0;

  while(got_null == 0 && max > 0){
    800016b2:	c6dd                	beqz	a3,80001760 <copyinstr+0xae>
{
    800016b4:	715d                	addi	sp,sp,-80
    800016b6:	e486                	sd	ra,72(sp)
    800016b8:	e0a2                	sd	s0,64(sp)
    800016ba:	fc26                	sd	s1,56(sp)
    800016bc:	f84a                	sd	s2,48(sp)
    800016be:	f44e                	sd	s3,40(sp)
    800016c0:	f052                	sd	s4,32(sp)
    800016c2:	ec56                	sd	s5,24(sp)
    800016c4:	e85a                	sd	s6,16(sp)
    800016c6:	e45e                	sd	s7,8(sp)
    800016c8:	0880                	addi	s0,sp,80
    800016ca:	8a2a                	mv	s4,a0
    800016cc:	8b2e                	mv	s6,a1
    800016ce:	8bb2                	mv	s7,a2
    800016d0:	8936                	mv	s2,a3
    va0 = PGROUNDDOWN(srcva);
    800016d2:	7afd                	lui	s5,0xfffff
    pa0 = walkaddr(pagetable, va0);
    if(pa0 == 0)
      return -1;
    n = PGSIZE - (srcva - va0);
    800016d4:	6985                	lui	s3,0x1
    800016d6:	a825                	j	8000170e <copyinstr+0x5c>
      n = max;

    char *p = (char *) (pa0 + (srcva - va0));
    while(n > 0){
      if(*p == '\0'){
        *dst = '\0';
    800016d8:	00078023          	sb	zero,0(a5) # 1000 <_entry-0x7ffff000>
    800016dc:	4785                	li	a5,1
      dst++;
    }

    srcva = va0 + PGSIZE;
  }
  if(got_null){
    800016de:	37fd                	addiw	a5,a5,-1
    800016e0:	0007851b          	sext.w	a0,a5
    return 0;
  } else {
    return -1;
  }
}
    800016e4:	60a6                	ld	ra,72(sp)
    800016e6:	6406                	ld	s0,64(sp)
    800016e8:	74e2                	ld	s1,56(sp)
    800016ea:	7942                	ld	s2,48(sp)
    800016ec:	79a2                	ld	s3,40(sp)
    800016ee:	7a02                	ld	s4,32(sp)
    800016f0:	6ae2                	ld	s5,24(sp)
    800016f2:	6b42                	ld	s6,16(sp)
    800016f4:	6ba2                	ld	s7,8(sp)
    800016f6:	6161                	addi	sp,sp,80
    800016f8:	8082                	ret
    800016fa:	fff90713          	addi	a4,s2,-1 # fff <_entry-0x7ffff001>
    800016fe:	9742                	add	a4,a4,a6
      --max;
    80001700:	40b70933          	sub	s2,a4,a1
    srcva = va0 + PGSIZE;
    80001704:	01348bb3          	add	s7,s1,s3
  while(got_null == 0 && max > 0){
    80001708:	04e58463          	beq	a1,a4,80001750 <copyinstr+0x9e>
{
    8000170c:	8b3e                	mv	s6,a5
    va0 = PGROUNDDOWN(srcva);
    8000170e:	015bf4b3          	and	s1,s7,s5
    pa0 = walkaddr(pagetable, va0);
    80001712:	85a6                	mv	a1,s1
    80001714:	8552                	mv	a0,s4
    80001716:	8c5ff0ef          	jal	80000fda <walkaddr>
    if(pa0 == 0)
    8000171a:	cd0d                	beqz	a0,80001754 <copyinstr+0xa2>
    n = PGSIZE - (srcva - va0);
    8000171c:	417486b3          	sub	a3,s1,s7
    80001720:	96ce                	add	a3,a3,s3
    if(n > max)
    80001722:	00d97363          	bgeu	s2,a3,80001728 <copyinstr+0x76>
    80001726:	86ca                	mv	a3,s2
    char *p = (char *) (pa0 + (srcva - va0));
    80001728:	955e                	add	a0,a0,s7
    8000172a:	8d05                	sub	a0,a0,s1
    while(n > 0){
    8000172c:	c695                	beqz	a3,80001758 <copyinstr+0xa6>
    8000172e:	87da                	mv	a5,s6
    80001730:	885a                	mv	a6,s6
      if(*p == '\0'){
    80001732:	41650633          	sub	a2,a0,s6
    while(n > 0){
    80001736:	96da                	add	a3,a3,s6
    80001738:	85be                	mv	a1,a5
      if(*p == '\0'){
    8000173a:	00f60733          	add	a4,a2,a5
    8000173e:	00074703          	lbu	a4,0(a4)
    80001742:	db59                	beqz	a4,800016d8 <copyinstr+0x26>
        *dst = *p;
    80001744:	00e78023          	sb	a4,0(a5)
      dst++;
    80001748:	0785                	addi	a5,a5,1
    while(n > 0){
    8000174a:	fed797e3          	bne	a5,a3,80001738 <copyinstr+0x86>
    8000174e:	b775                	j	800016fa <copyinstr+0x48>
    80001750:	4781                	li	a5,0
    80001752:	b771                	j	800016de <copyinstr+0x2c>
      return -1;
    80001754:	557d                	li	a0,-1
    80001756:	b779                	j	800016e4 <copyinstr+0x32>
    srcva = va0 + PGSIZE;
    80001758:	6b85                	lui	s7,0x1
    8000175a:	9ba6                	add	s7,s7,s1
    8000175c:	87da                	mv	a5,s6
    8000175e:	b77d                	j	8000170c <copyinstr+0x5a>
  int got_null = 0;
    80001760:	4781                	li	a5,0
  if(got_null){
    80001762:	37fd                	addiw	a5,a5,-1
    80001764:	0007851b          	sext.w	a0,a5
}
    80001768:	8082                	ret

000000008000176a <proc_mapstacks>:
// Allocate a page for each process's kernel stack.
// Map it high in memory, followed by an invalid
// guard page.
void
proc_mapstacks(pagetable_t kpgtbl)
{
    8000176a:	7139                	addi	sp,sp,-64
    8000176c:	fc06                	sd	ra,56(sp)
    8000176e:	f822                	sd	s0,48(sp)
    80001770:	f426                	sd	s1,40(sp)
    80001772:	f04a                	sd	s2,32(sp)
    80001774:	ec4e                	sd	s3,24(sp)
    80001776:	e852                	sd	s4,16(sp)
    80001778:	e456                	sd	s5,8(sp)
    8000177a:	e05a                	sd	s6,0(sp)
    8000177c:	0080                	addi	s0,sp,64
    8000177e:	8a2a                	mv	s4,a0
  struct proc *p;
  
  for(p = proc; p < &proc[NPROC]; p++) {
    80001780:	0000e497          	auipc	s1,0xe
    80001784:	7e048493          	addi	s1,s1,2016 # 8000ff60 <proc>
    char *pa = kalloc();
    if(pa == 0)
      panic("kalloc");
    uint64 va = KSTACK((int) (p - proc));
    80001788:	8b26                	mv	s6,s1
    8000178a:	00a36937          	lui	s2,0xa36
    8000178e:	77d90913          	addi	s2,s2,1917 # a3677d <_entry-0x7f5c9883>
    80001792:	0932                	slli	s2,s2,0xc
    80001794:	46d90913          	addi	s2,s2,1133
    80001798:	0936                	slli	s2,s2,0xd
    8000179a:	df590913          	addi	s2,s2,-523
    8000179e:	093a                	slli	s2,s2,0xe
    800017a0:	6cf90913          	addi	s2,s2,1743
    800017a4:	040009b7          	lui	s3,0x4000
    800017a8:	19fd                	addi	s3,s3,-1 # 3ffffff <_entry-0x7c000001>
    800017aa:	09b2                	slli	s3,s3,0xc
  for(p = proc; p < &proc[NPROC]; p++) {
    800017ac:	00014a97          	auipc	s5,0x14
    800017b0:	5b4a8a93          	addi	s5,s5,1460 # 80015d60 <tickslock>
    char *pa = kalloc();
    800017b4:	b70ff0ef          	jal	80000b24 <kalloc>
    800017b8:	862a                	mv	a2,a0
    if(pa == 0)
    800017ba:	cd15                	beqz	a0,800017f6 <proc_mapstacks+0x8c>
    uint64 va = KSTACK((int) (p - proc));
    800017bc:	416485b3          	sub	a1,s1,s6
    800017c0:	858d                	srai	a1,a1,0x3
    800017c2:	032585b3          	mul	a1,a1,s2
    800017c6:	2585                	addiw	a1,a1,1
    800017c8:	00d5959b          	slliw	a1,a1,0xd
    kvmmap(kpgtbl, va, (uint64)pa, PGSIZE, PTE_R | PTE_W);
    800017cc:	4719                	li	a4,6
    800017ce:	6685                	lui	a3,0x1
    800017d0:	40b985b3          	sub	a1,s3,a1
    800017d4:	8552                	mv	a0,s4
    800017d6:	8f3ff0ef          	jal	800010c8 <kvmmap>
  for(p = proc; p < &proc[NPROC]; p++) {
    800017da:	17848493          	addi	s1,s1,376
    800017de:	fd549be3          	bne	s1,s5,800017b4 <proc_mapstacks+0x4a>
  }
}
    800017e2:	70e2                	ld	ra,56(sp)
    800017e4:	7442                	ld	s0,48(sp)
    800017e6:	74a2                	ld	s1,40(sp)
    800017e8:	7902                	ld	s2,32(sp)
    800017ea:	69e2                	ld	s3,24(sp)
    800017ec:	6a42                	ld	s4,16(sp)
    800017ee:	6aa2                	ld	s5,8(sp)
    800017f0:	6b02                	ld	s6,0(sp)
    800017f2:	6121                	addi	sp,sp,64
    800017f4:	8082                	ret
      panic("kalloc");
    800017f6:	00006517          	auipc	a0,0x6
    800017fa:	a0250513          	addi	a0,a0,-1534 # 800071f8 <etext+0x1f8>
    800017fe:	f97fe0ef          	jal	80000794 <panic>

0000000080001802 <procinit>:

// initialize the proc table.
void
procinit(void)
{
    80001802:	715d                	addi	sp,sp,-80
    80001804:	e486                	sd	ra,72(sp)
    80001806:	e0a2                	sd	s0,64(sp)
    80001808:	fc26                	sd	s1,56(sp)
    8000180a:	f84a                	sd	s2,48(sp)
    8000180c:	f44e                	sd	s3,40(sp)
    8000180e:	f052                	sd	s4,32(sp)
    80001810:	ec56                	sd	s5,24(sp)
    80001812:	e85a                	sd	s6,16(sp)
    80001814:	e45e                	sd	s7,8(sp)
    80001816:	0880                	addi	s0,sp,80
  struct proc *p;
  
  initlock(&pid_lock, "nextpid");
    80001818:	00006597          	auipc	a1,0x6
    8000181c:	9e858593          	addi	a1,a1,-1560 # 80007200 <etext+0x200>
    80001820:	0000e517          	auipc	a0,0xe
    80001824:	29050513          	addi	a0,a0,656 # 8000fab0 <pid_lock>
    80001828:	b4cff0ef          	jal	80000b74 <initlock>
  initlock(&wait_lock, "wait_lock");
    8000182c:	00006597          	auipc	a1,0x6
    80001830:	9dc58593          	addi	a1,a1,-1572 # 80007208 <etext+0x208>
    80001834:	0000e517          	auipc	a0,0xe
    80001838:	29450513          	addi	a0,a0,660 # 8000fac8 <wait_lock>
    8000183c:	b38ff0ef          	jal	80000b74 <initlock>
  for(p = proc; p < &proc[NPROC]; p++) {
    80001840:	0000e497          	auipc	s1,0xe
    80001844:	72048493          	addi	s1,s1,1824 # 8000ff60 <proc>
      initlock(&p->lock, "proc");
    80001848:	00006b97          	auipc	s7,0x6
    8000184c:	9d0b8b93          	addi	s7,s7,-1584 # 80007218 <etext+0x218>
      p->state = UNUSED;
      p->kstack = KSTACK((int) (p - proc));
    80001850:	8b26                	mv	s6,s1
    80001852:	00a36937          	lui	s2,0xa36
    80001856:	77d90913          	addi	s2,s2,1917 # a3677d <_entry-0x7f5c9883>
    8000185a:	0932                	slli	s2,s2,0xc
    8000185c:	46d90913          	addi	s2,s2,1133
    80001860:	0936                	slli	s2,s2,0xd
    80001862:	df590913          	addi	s2,s2,-523
    80001866:	093a                	slli	s2,s2,0xe
    80001868:	6cf90913          	addi	s2,s2,1743
    8000186c:	040009b7          	lui	s3,0x4000
    80001870:	19fd                	addi	s3,s3,-1 # 3ffffff <_entry-0x7c000001>
    80001872:	09b2                	slli	s3,s3,0xc
      p->priority = 1;
    80001874:	4a85                	li	s5,1
  for(p = proc; p < &proc[NPROC]; p++) {
    80001876:	00014a17          	auipc	s4,0x14
    8000187a:	4eaa0a13          	addi	s4,s4,1258 # 80015d60 <tickslock>
      initlock(&p->lock, "proc");
    8000187e:	85de                	mv	a1,s7
    80001880:	8526                	mv	a0,s1
    80001882:	af2ff0ef          	jal	80000b74 <initlock>
      p->state = UNUSED;
    80001886:	0004ac23          	sw	zero,24(s1)
      p->kstack = KSTACK((int) (p - proc));
    8000188a:	416487b3          	sub	a5,s1,s6
    8000188e:	878d                	srai	a5,a5,0x3
    80001890:	032787b3          	mul	a5,a5,s2
    80001894:	2785                	addiw	a5,a5,1
    80001896:	00d7979b          	slliw	a5,a5,0xd
    8000189a:	40f987b3          	sub	a5,s3,a5
    8000189e:	e0bc                	sd	a5,64(s1)
      p->priority = 1;
    800018a0:	1754a423          	sw	s5,360(s1)
      p->next_p_priority = NULL;
    800018a4:	1604b823          	sd	zero,368(s1)
  for(p = proc; p < &proc[NPROC]; p++) {
    800018a8:	17848493          	addi	s1,s1,376
    800018ac:	fd4499e3          	bne	s1,s4,8000187e <procinit+0x7c>
  }
}
    800018b0:	60a6                	ld	ra,72(sp)
    800018b2:	6406                	ld	s0,64(sp)
    800018b4:	74e2                	ld	s1,56(sp)
    800018b6:	7942                	ld	s2,48(sp)
    800018b8:	79a2                	ld	s3,40(sp)
    800018ba:	7a02                	ld	s4,32(sp)
    800018bc:	6ae2                	ld	s5,24(sp)
    800018be:	6b42                	ld	s6,16(sp)
    800018c0:	6ba2                	ld	s7,8(sp)
    800018c2:	6161                	addi	sp,sp,80
    800018c4:	8082                	ret

00000000800018c6 <cpuid>:
// Must be called with interrupts disabled,
// to prevent race with process being moved
// to a different CPU.
int
cpuid()
{
    800018c6:	1141                	addi	sp,sp,-16
    800018c8:	e422                	sd	s0,8(sp)
    800018ca:	0800                	addi	s0,sp,16
  asm volatile("mv %0, tp" : "=r" (x) );
    800018cc:	8512                	mv	a0,tp
  int id = r_tp();
  return id;
}
    800018ce:	2501                	sext.w	a0,a0
    800018d0:	6422                	ld	s0,8(sp)
    800018d2:	0141                	addi	sp,sp,16
    800018d4:	8082                	ret

00000000800018d6 <mycpu>:

// Return this CPU's cpu struct.
// Interrupts must be disabled.
struct cpu*
mycpu(void)
{
    800018d6:	1141                	addi	sp,sp,-16
    800018d8:	e422                	sd	s0,8(sp)
    800018da:	0800                	addi	s0,sp,16
    800018dc:	8792                	mv	a5,tp
  int id = cpuid();
  struct cpu *c = &cpus[id];
    800018de:	2781                	sext.w	a5,a5
    800018e0:	079e                	slli	a5,a5,0x7
  return c;
}
    800018e2:	0000e517          	auipc	a0,0xe
    800018e6:	1fe50513          	addi	a0,a0,510 # 8000fae0 <cpus>
    800018ea:	953e                	add	a0,a0,a5
    800018ec:	6422                	ld	s0,8(sp)
    800018ee:	0141                	addi	sp,sp,16
    800018f0:	8082                	ret

00000000800018f2 <myproc>:

// Return the current struct proc *, or zero if none.
struct proc*
myproc(void)
{
    800018f2:	1101                	addi	sp,sp,-32
    800018f4:	ec06                	sd	ra,24(sp)
    800018f6:	e822                	sd	s0,16(sp)
    800018f8:	e426                	sd	s1,8(sp)
    800018fa:	1000                	addi	s0,sp,32
  push_off();
    800018fc:	ab8ff0ef          	jal	80000bb4 <push_off>
    80001900:	8792                	mv	a5,tp
  struct cpu *c = mycpu();
  struct proc *p = c->proc;
    80001902:	2781                	sext.w	a5,a5
    80001904:	079e                	slli	a5,a5,0x7
    80001906:	0000e717          	auipc	a4,0xe
    8000190a:	1aa70713          	addi	a4,a4,426 # 8000fab0 <pid_lock>
    8000190e:	97ba                	add	a5,a5,a4
    80001910:	7b84                	ld	s1,48(a5)
  pop_off();
    80001912:	b26ff0ef          	jal	80000c38 <pop_off>
  return p;
}
    80001916:	8526                	mv	a0,s1
    80001918:	60e2                	ld	ra,24(sp)
    8000191a:	6442                	ld	s0,16(sp)
    8000191c:	64a2                	ld	s1,8(sp)
    8000191e:	6105                	addi	sp,sp,32
    80001920:	8082                	ret

0000000080001922 <forkret>:

// A fork child's very first scheduling by scheduler()
// will swtch to forkret.
void
forkret(void)
{
    80001922:	1141                	addi	sp,sp,-16
    80001924:	e406                	sd	ra,8(sp)
    80001926:	e022                	sd	s0,0(sp)
    80001928:	0800                	addi	s0,sp,16
  static int first = 1;

  // Still holding p->lock from scheduler.
  release(&myproc()->lock);
    8000192a:	fc9ff0ef          	jal	800018f2 <myproc>
    8000192e:	b5eff0ef          	jal	80000c8c <release>

  if (first) {
    80001932:	00006797          	auipc	a5,0x6
    80001936:	fce7a783          	lw	a5,-50(a5) # 80007900 <first.1>
    8000193a:	e799                	bnez	a5,80001948 <forkret+0x26>
    first = 0;
    // ensure other cores see first=0.
    __sync_synchronize();
  }

  usertrapret();
    8000193c:	48b000ef          	jal	800025c6 <usertrapret>
}
    80001940:	60a2                	ld	ra,8(sp)
    80001942:	6402                	ld	s0,0(sp)
    80001944:	0141                	addi	sp,sp,16
    80001946:	8082                	ret
    fsinit(ROOTDEV);
    80001948:	4505                	li	a0,1
    8000194a:	021010ef          	jal	8000316a <fsinit>
    first = 0;
    8000194e:	00006797          	auipc	a5,0x6
    80001952:	fa07a923          	sw	zero,-78(a5) # 80007900 <first.1>
    __sync_synchronize();
    80001956:	0ff0000f          	fence
    8000195a:	b7cd                	j	8000193c <forkret+0x1a>

000000008000195c <allocpid>:
{
    8000195c:	1101                	addi	sp,sp,-32
    8000195e:	ec06                	sd	ra,24(sp)
    80001960:	e822                	sd	s0,16(sp)
    80001962:	e426                	sd	s1,8(sp)
    80001964:	e04a                	sd	s2,0(sp)
    80001966:	1000                	addi	s0,sp,32
  acquire(&pid_lock);
    80001968:	0000e917          	auipc	s2,0xe
    8000196c:	14890913          	addi	s2,s2,328 # 8000fab0 <pid_lock>
    80001970:	854a                	mv	a0,s2
    80001972:	a82ff0ef          	jal	80000bf4 <acquire>
  pid = nextpid;
    80001976:	00006797          	auipc	a5,0x6
    8000197a:	f8e78793          	addi	a5,a5,-114 # 80007904 <nextpid>
    8000197e:	4384                	lw	s1,0(a5)
  nextpid = nextpid + 1;
    80001980:	0014871b          	addiw	a4,s1,1
    80001984:	c398                	sw	a4,0(a5)
  release(&pid_lock);
    80001986:	854a                	mv	a0,s2
    80001988:	b04ff0ef          	jal	80000c8c <release>
}
    8000198c:	8526                	mv	a0,s1
    8000198e:	60e2                	ld	ra,24(sp)
    80001990:	6442                	ld	s0,16(sp)
    80001992:	64a2                	ld	s1,8(sp)
    80001994:	6902                	ld	s2,0(sp)
    80001996:	6105                	addi	sp,sp,32
    80001998:	8082                	ret

000000008000199a <proc_pagetable>:
{
    8000199a:	1101                	addi	sp,sp,-32
    8000199c:	ec06                	sd	ra,24(sp)
    8000199e:	e822                	sd	s0,16(sp)
    800019a0:	e426                	sd	s1,8(sp)
    800019a2:	e04a                	sd	s2,0(sp)
    800019a4:	1000                	addi	s0,sp,32
    800019a6:	892a                	mv	s2,a0
  pagetable = uvmcreate();
    800019a8:	8d3ff0ef          	jal	8000127a <uvmcreate>
    800019ac:	84aa                	mv	s1,a0
  if(pagetable == 0)
    800019ae:	cd05                	beqz	a0,800019e6 <proc_pagetable+0x4c>
  if(mappages(pagetable, TRAMPOLINE, PGSIZE,
    800019b0:	4729                	li	a4,10
    800019b2:	00004697          	auipc	a3,0x4
    800019b6:	64e68693          	addi	a3,a3,1614 # 80006000 <_trampoline>
    800019ba:	6605                	lui	a2,0x1
    800019bc:	040005b7          	lui	a1,0x4000
    800019c0:	15fd                	addi	a1,a1,-1 # 3ffffff <_entry-0x7c000001>
    800019c2:	05b2                	slli	a1,a1,0xc
    800019c4:	e54ff0ef          	jal	80001018 <mappages>
    800019c8:	02054663          	bltz	a0,800019f4 <proc_pagetable+0x5a>
  if(mappages(pagetable, TRAPFRAME, PGSIZE,
    800019cc:	4719                	li	a4,6
    800019ce:	05893683          	ld	a3,88(s2)
    800019d2:	6605                	lui	a2,0x1
    800019d4:	020005b7          	lui	a1,0x2000
    800019d8:	15fd                	addi	a1,a1,-1 # 1ffffff <_entry-0x7e000001>
    800019da:	05b6                	slli	a1,a1,0xd
    800019dc:	8526                	mv	a0,s1
    800019de:	e3aff0ef          	jal	80001018 <mappages>
    800019e2:	00054f63          	bltz	a0,80001a00 <proc_pagetable+0x66>
}
    800019e6:	8526                	mv	a0,s1
    800019e8:	60e2                	ld	ra,24(sp)
    800019ea:	6442                	ld	s0,16(sp)
    800019ec:	64a2                	ld	s1,8(sp)
    800019ee:	6902                	ld	s2,0(sp)
    800019f0:	6105                	addi	sp,sp,32
    800019f2:	8082                	ret
    uvmfree(pagetable, 0);
    800019f4:	4581                	li	a1,0
    800019f6:	8526                	mv	a0,s1
    800019f8:	a51ff0ef          	jal	80001448 <uvmfree>
    return 0;
    800019fc:	4481                	li	s1,0
    800019fe:	b7e5                	j	800019e6 <proc_pagetable+0x4c>
    uvmunmap(pagetable, TRAMPOLINE, 1, 0);
    80001a00:	4681                	li	a3,0
    80001a02:	4605                	li	a2,1
    80001a04:	040005b7          	lui	a1,0x4000
    80001a08:	15fd                	addi	a1,a1,-1 # 3ffffff <_entry-0x7c000001>
    80001a0a:	05b2                	slli	a1,a1,0xc
    80001a0c:	8526                	mv	a0,s1
    80001a0e:	fb0ff0ef          	jal	800011be <uvmunmap>
    uvmfree(pagetable, 0);
    80001a12:	4581                	li	a1,0
    80001a14:	8526                	mv	a0,s1
    80001a16:	a33ff0ef          	jal	80001448 <uvmfree>
    return 0;
    80001a1a:	4481                	li	s1,0
    80001a1c:	b7e9                	j	800019e6 <proc_pagetable+0x4c>

0000000080001a1e <proc_freepagetable>:
{
    80001a1e:	1101                	addi	sp,sp,-32
    80001a20:	ec06                	sd	ra,24(sp)
    80001a22:	e822                	sd	s0,16(sp)
    80001a24:	e426                	sd	s1,8(sp)
    80001a26:	e04a                	sd	s2,0(sp)
    80001a28:	1000                	addi	s0,sp,32
    80001a2a:	84aa                	mv	s1,a0
    80001a2c:	892e                	mv	s2,a1
  uvmunmap(pagetable, TRAMPOLINE, 1, 0);
    80001a2e:	4681                	li	a3,0
    80001a30:	4605                	li	a2,1
    80001a32:	040005b7          	lui	a1,0x4000
    80001a36:	15fd                	addi	a1,a1,-1 # 3ffffff <_entry-0x7c000001>
    80001a38:	05b2                	slli	a1,a1,0xc
    80001a3a:	f84ff0ef          	jal	800011be <uvmunmap>
  uvmunmap(pagetable, TRAPFRAME, 1, 0);
    80001a3e:	4681                	li	a3,0
    80001a40:	4605                	li	a2,1
    80001a42:	020005b7          	lui	a1,0x2000
    80001a46:	15fd                	addi	a1,a1,-1 # 1ffffff <_entry-0x7e000001>
    80001a48:	05b6                	slli	a1,a1,0xd
    80001a4a:	8526                	mv	a0,s1
    80001a4c:	f72ff0ef          	jal	800011be <uvmunmap>
  uvmfree(pagetable, sz);
    80001a50:	85ca                	mv	a1,s2
    80001a52:	8526                	mv	a0,s1
    80001a54:	9f5ff0ef          	jal	80001448 <uvmfree>
}
    80001a58:	60e2                	ld	ra,24(sp)
    80001a5a:	6442                	ld	s0,16(sp)
    80001a5c:	64a2                	ld	s1,8(sp)
    80001a5e:	6902                	ld	s2,0(sp)
    80001a60:	6105                	addi	sp,sp,32
    80001a62:	8082                	ret

0000000080001a64 <freeproc>:
{
    80001a64:	1101                	addi	sp,sp,-32
    80001a66:	ec06                	sd	ra,24(sp)
    80001a68:	e822                	sd	s0,16(sp)
    80001a6a:	e426                	sd	s1,8(sp)
    80001a6c:	1000                	addi	s0,sp,32
    80001a6e:	84aa                	mv	s1,a0
  if(p->trapframe)
    80001a70:	6d28                	ld	a0,88(a0)
    80001a72:	c119                	beqz	a0,80001a78 <freeproc+0x14>
    kfree((void*)p->trapframe);
    80001a74:	fcffe0ef          	jal	80000a42 <kfree>
  p->trapframe = 0;
    80001a78:	0404bc23          	sd	zero,88(s1)
  if(p->pagetable)
    80001a7c:	68a8                	ld	a0,80(s1)
    80001a7e:	c501                	beqz	a0,80001a86 <freeproc+0x22>
    proc_freepagetable(p->pagetable, p->sz);
    80001a80:	64ac                	ld	a1,72(s1)
    80001a82:	f9dff0ef          	jal	80001a1e <proc_freepagetable>
  p->pagetable = 0;
    80001a86:	0404b823          	sd	zero,80(s1)
  p->sz = 0;
    80001a8a:	0404b423          	sd	zero,72(s1)
  p->pid = 0;
    80001a8e:	0204a823          	sw	zero,48(s1)
  p->parent = 0;
    80001a92:	0204bc23          	sd	zero,56(s1)
  p->name[0] = 0;
    80001a96:	14048c23          	sb	zero,344(s1)
  p->chan = 0;
    80001a9a:	0204b023          	sd	zero,32(s1)
  p->killed = 0;
    80001a9e:	0204a423          	sw	zero,40(s1)
  p->xstate = 0;
    80001aa2:	0204a623          	sw	zero,44(s1)
  p->state = UNUSED;
    80001aa6:	0004ac23          	sw	zero,24(s1)
}
    80001aaa:	60e2                	ld	ra,24(sp)
    80001aac:	6442                	ld	s0,16(sp)
    80001aae:	64a2                	ld	s1,8(sp)
    80001ab0:	6105                	addi	sp,sp,32
    80001ab2:	8082                	ret

0000000080001ab4 <growproc>:
{
    80001ab4:	1101                	addi	sp,sp,-32
    80001ab6:	ec06                	sd	ra,24(sp)
    80001ab8:	e822                	sd	s0,16(sp)
    80001aba:	e426                	sd	s1,8(sp)
    80001abc:	e04a                	sd	s2,0(sp)
    80001abe:	1000                	addi	s0,sp,32
    80001ac0:	892a                	mv	s2,a0
  struct proc *p = myproc();
    80001ac2:	e31ff0ef          	jal	800018f2 <myproc>
    80001ac6:	84aa                	mv	s1,a0
  sz = p->sz;
    80001ac8:	652c                	ld	a1,72(a0)
  if(n > 0){
    80001aca:	01204c63          	bgtz	s2,80001ae2 <growproc+0x2e>
  } else if(n < 0){
    80001ace:	02094463          	bltz	s2,80001af6 <growproc+0x42>
  p->sz = sz;
    80001ad2:	e4ac                	sd	a1,72(s1)
  return 0;
    80001ad4:	4501                	li	a0,0
}
    80001ad6:	60e2                	ld	ra,24(sp)
    80001ad8:	6442                	ld	s0,16(sp)
    80001ada:	64a2                	ld	s1,8(sp)
    80001adc:	6902                	ld	s2,0(sp)
    80001ade:	6105                	addi	sp,sp,32
    80001ae0:	8082                	ret
    if((sz = uvmalloc(p->pagetable, sz, sz + n, PTE_W)) == 0) {
    80001ae2:	4691                	li	a3,4
    80001ae4:	00b90633          	add	a2,s2,a1
    80001ae8:	6928                	ld	a0,80(a0)
    80001aea:	859ff0ef          	jal	80001342 <uvmalloc>
    80001aee:	85aa                	mv	a1,a0
    80001af0:	f16d                	bnez	a0,80001ad2 <growproc+0x1e>
      return -1;
    80001af2:	557d                	li	a0,-1
    80001af4:	b7cd                	j	80001ad6 <growproc+0x22>
    sz = uvmdealloc(p->pagetable, sz, sz + n);
    80001af6:	00b90633          	add	a2,s2,a1
    80001afa:	6928                	ld	a0,80(a0)
    80001afc:	803ff0ef          	jal	800012fe <uvmdealloc>
    80001b00:	85aa                	mv	a1,a0
    80001b02:	bfc1                	j	80001ad2 <growproc+0x1e>

0000000080001b04 <scheduler>:
{
    80001b04:	711d                	addi	sp,sp,-96
    80001b06:	ec86                	sd	ra,88(sp)
    80001b08:	e8a2                	sd	s0,80(sp)
    80001b0a:	e4a6                	sd	s1,72(sp)
    80001b0c:	e0ca                	sd	s2,64(sp)
    80001b0e:	fc4e                	sd	s3,56(sp)
    80001b10:	f852                	sd	s4,48(sp)
    80001b12:	f456                	sd	s5,40(sp)
    80001b14:	f05a                	sd	s6,32(sp)
    80001b16:	ec5e                	sd	s7,24(sp)
    80001b18:	e862                	sd	s8,16(sp)
    80001b1a:	e466                	sd	s9,8(sp)
    80001b1c:	1080                	addi	s0,sp,96
    80001b1e:	8792                	mv	a5,tp
  int id = r_tp();
    80001b20:	2781                	sext.w	a5,a5
  c->proc = 0;
    80001b22:	00779b93          	slli	s7,a5,0x7
    80001b26:	0000e717          	auipc	a4,0xe
    80001b2a:	f8a70713          	addi	a4,a4,-118 # 8000fab0 <pid_lock>
    80001b2e:	975e                	add	a4,a4,s7
    80001b30:	02073823          	sd	zero,48(a4)
        swtch(&c->context, &p->context);
    80001b34:	0000e717          	auipc	a4,0xe
    80001b38:	fb470713          	addi	a4,a4,-76 # 8000fae8 <cpus+0x8>
    80001b3c:	9bba                	add	s7,s7,a4
        printf("The process is %s and the priority is %d\n", p->name, p->priority);
    80001b3e:	00005c97          	auipc	s9,0x5
    80001b42:	6e2c8c93          	addi	s9,s9,1762 # 80007220 <etext+0x220>
        p->state = RUNNING;
    80001b46:	4c11                	li	s8,4
        c->proc = p;
    80001b48:	079e                	slli	a5,a5,0x7
    80001b4a:	0000ea17          	auipc	s4,0xe
    80001b4e:	f66a0a13          	addi	s4,s4,-154 # 8000fab0 <pid_lock>
    80001b52:	9a3e                	add	s4,s4,a5
    for(p = proc; p < &proc[NPROC]; p++) {
    80001b54:	00014997          	auipc	s3,0x14
    80001b58:	20c98993          	addi	s3,s3,524 # 80015d60 <tickslock>
    80001b5c:	a8b5                	j	80001bd8 <scheduler+0xd4>
        p->state = RUNNING;
    80001b5e:	0184ac23          	sw	s8,24(s1)
        c->proc = p;
    80001b62:	029a3823          	sd	s1,48(s4)
        swtch(&c->context, &p->context);
    80001b66:	060a8593          	addi	a1,s5,96
    80001b6a:	855e                	mv	a0,s7
    80001b6c:	1b5000ef          	jal	80002520 <swtch>
        c->proc = 0;
    80001b70:	020a3823          	sd	zero,48(s4)
        found = 1;
    80001b74:	8ada                	mv	s5,s6
      release(&p->lock);
    80001b76:	8526                	mv	a0,s1
    80001b78:	914ff0ef          	jal	80000c8c <release>
    for(p = proc; p < &proc[NPROC]; p++) {
    80001b7c:	17848493          	addi	s1,s1,376
    80001b80:	05348263          	beq	s1,s3,80001bc4 <scheduler+0xc0>
      acquire(&p->lock);
    80001b84:	8526                	mv	a0,s1
    80001b86:	86eff0ef          	jal	80000bf4 <acquire>
      if(p->state == RUNNABLE) {
    80001b8a:	4c9c                	lw	a5,24(s1)
    80001b8c:	ff2795e3          	bne	a5,s2,80001b76 <scheduler+0x72>
    80001b90:	8aa6                	mv	s5,s1
        printf("The process is %s and the priority is %d\n", p->name, p->priority);
    80001b92:	1684a603          	lw	a2,360(s1)
    80001b96:	15848593          	addi	a1,s1,344
    80001b9a:	8566                	mv	a0,s9
    80001b9c:	927fe0ef          	jal	800004c2 <printf>
        if(p->next_p_priority != NULL){
    80001ba0:	1704b583          	ld	a1,368(s1)
    80001ba4:	ddcd                	beqz	a1,80001b5e <scheduler+0x5a>
          printf("The next process of priority is %s \n", p->next_p_priority->name);
    80001ba6:	15858593          	addi	a1,a1,344
    80001baa:	00005517          	auipc	a0,0x5
    80001bae:	6a650513          	addi	a0,a0,1702 # 80007250 <etext+0x250>
    80001bb2:	911fe0ef          	jal	800004c2 <printf>
          printf("\n");
    80001bb6:	00005517          	auipc	a0,0x5
    80001bba:	4c250513          	addi	a0,a0,1218 # 80007078 <etext+0x78>
    80001bbe:	905fe0ef          	jal	800004c2 <printf>
    80001bc2:	bf71                	j	80001b5e <scheduler+0x5a>
    if(found == 0) {
    80001bc4:	000a9a63          	bnez	s5,80001bd8 <scheduler+0xd4>
  asm volatile("csrr %0, sstatus" : "=r" (x) );
    80001bc8:	100027f3          	csrr	a5,sstatus
  w_sstatus(r_sstatus() | SSTATUS_SIE);
    80001bcc:	0027e793          	ori	a5,a5,2
  asm volatile("csrw sstatus, %0" : : "r" (x));
    80001bd0:	10079073          	csrw	sstatus,a5
      asm volatile("wfi");
    80001bd4:	10500073          	wfi
  asm volatile("csrr %0, sstatus" : "=r" (x) );
    80001bd8:	100027f3          	csrr	a5,sstatus
  w_sstatus(r_sstatus() | SSTATUS_SIE);
    80001bdc:	0027e793          	ori	a5,a5,2
  asm volatile("csrw sstatus, %0" : : "r" (x));
    80001be0:	10079073          	csrw	sstatus,a5
    int found = 0;
    80001be4:	4a81                	li	s5,0
    for(p = proc; p < &proc[NPROC]; p++) {
    80001be6:	0000e497          	auipc	s1,0xe
    80001bea:	37a48493          	addi	s1,s1,890 # 8000ff60 <proc>
      if(p->state == RUNNABLE) {
    80001bee:	490d                	li	s2,3
        found = 1;
    80001bf0:	4b05                	li	s6,1
    80001bf2:	bf49                	j	80001b84 <scheduler+0x80>

0000000080001bf4 <sched>:
{
    80001bf4:	7179                	addi	sp,sp,-48
    80001bf6:	f406                	sd	ra,40(sp)
    80001bf8:	f022                	sd	s0,32(sp)
    80001bfa:	ec26                	sd	s1,24(sp)
    80001bfc:	e84a                	sd	s2,16(sp)
    80001bfe:	e44e                	sd	s3,8(sp)
    80001c00:	1800                	addi	s0,sp,48
  struct proc *p = myproc();
    80001c02:	cf1ff0ef          	jal	800018f2 <myproc>
    80001c06:	84aa                	mv	s1,a0
  if(!holding(&p->lock))
    80001c08:	f83fe0ef          	jal	80000b8a <holding>
    80001c0c:	c92d                	beqz	a0,80001c7e <sched+0x8a>
  asm volatile("mv %0, tp" : "=r" (x) );
    80001c0e:	8792                	mv	a5,tp
  if(mycpu()->noff != 1)
    80001c10:	2781                	sext.w	a5,a5
    80001c12:	079e                	slli	a5,a5,0x7
    80001c14:	0000e717          	auipc	a4,0xe
    80001c18:	e9c70713          	addi	a4,a4,-356 # 8000fab0 <pid_lock>
    80001c1c:	97ba                	add	a5,a5,a4
    80001c1e:	0a87a703          	lw	a4,168(a5)
    80001c22:	4785                	li	a5,1
    80001c24:	06f71363          	bne	a4,a5,80001c8a <sched+0x96>
  if(p->state == RUNNING)
    80001c28:	4c98                	lw	a4,24(s1)
    80001c2a:	4791                	li	a5,4
    80001c2c:	06f70563          	beq	a4,a5,80001c96 <sched+0xa2>
  asm volatile("csrr %0, sstatus" : "=r" (x) );
    80001c30:	100027f3          	csrr	a5,sstatus
  return (x & SSTATUS_SIE) != 0;
    80001c34:	8b89                	andi	a5,a5,2
  if(intr_get())
    80001c36:	e7b5                	bnez	a5,80001ca2 <sched+0xae>
  asm volatile("mv %0, tp" : "=r" (x) );
    80001c38:	8792                	mv	a5,tp
  intena = mycpu()->intena;
    80001c3a:	0000e917          	auipc	s2,0xe
    80001c3e:	e7690913          	addi	s2,s2,-394 # 8000fab0 <pid_lock>
    80001c42:	2781                	sext.w	a5,a5
    80001c44:	079e                	slli	a5,a5,0x7
    80001c46:	97ca                	add	a5,a5,s2
    80001c48:	0ac7a983          	lw	s3,172(a5)
    80001c4c:	8792                	mv	a5,tp
  swtch(&p->context, &mycpu()->context);
    80001c4e:	2781                	sext.w	a5,a5
    80001c50:	079e                	slli	a5,a5,0x7
    80001c52:	0000e597          	auipc	a1,0xe
    80001c56:	e9658593          	addi	a1,a1,-362 # 8000fae8 <cpus+0x8>
    80001c5a:	95be                	add	a1,a1,a5
    80001c5c:	06048513          	addi	a0,s1,96
    80001c60:	0c1000ef          	jal	80002520 <swtch>
    80001c64:	8792                	mv	a5,tp
  mycpu()->intena = intena;
    80001c66:	2781                	sext.w	a5,a5
    80001c68:	079e                	slli	a5,a5,0x7
    80001c6a:	993e                	add	s2,s2,a5
    80001c6c:	0b392623          	sw	s3,172(s2)
}
    80001c70:	70a2                	ld	ra,40(sp)
    80001c72:	7402                	ld	s0,32(sp)
    80001c74:	64e2                	ld	s1,24(sp)
    80001c76:	6942                	ld	s2,16(sp)
    80001c78:	69a2                	ld	s3,8(sp)
    80001c7a:	6145                	addi	sp,sp,48
    80001c7c:	8082                	ret
    panic("sched p->lock");
    80001c7e:	00005517          	auipc	a0,0x5
    80001c82:	5fa50513          	addi	a0,a0,1530 # 80007278 <etext+0x278>
    80001c86:	b0ffe0ef          	jal	80000794 <panic>
    panic("sched locks");
    80001c8a:	00005517          	auipc	a0,0x5
    80001c8e:	5fe50513          	addi	a0,a0,1534 # 80007288 <etext+0x288>
    80001c92:	b03fe0ef          	jal	80000794 <panic>
    panic("sched running");
    80001c96:	00005517          	auipc	a0,0x5
    80001c9a:	60250513          	addi	a0,a0,1538 # 80007298 <etext+0x298>
    80001c9e:	af7fe0ef          	jal	80000794 <panic>
    panic("sched interruptible");
    80001ca2:	00005517          	auipc	a0,0x5
    80001ca6:	60650513          	addi	a0,a0,1542 # 800072a8 <etext+0x2a8>
    80001caa:	aebfe0ef          	jal	80000794 <panic>

0000000080001cae <yield>:
{
    80001cae:	1101                	addi	sp,sp,-32
    80001cb0:	ec06                	sd	ra,24(sp)
    80001cb2:	e822                	sd	s0,16(sp)
    80001cb4:	e426                	sd	s1,8(sp)
    80001cb6:	1000                	addi	s0,sp,32
  struct proc *p = myproc();
    80001cb8:	c3bff0ef          	jal	800018f2 <myproc>
    80001cbc:	84aa                	mv	s1,a0
  acquire(&p->lock);
    80001cbe:	f37fe0ef          	jal	80000bf4 <acquire>
  p->state = RUNNABLE;
    80001cc2:	478d                	li	a5,3
    80001cc4:	cc9c                	sw	a5,24(s1)
  sched();
    80001cc6:	f2fff0ef          	jal	80001bf4 <sched>
  release(&p->lock);
    80001cca:	8526                	mv	a0,s1
    80001ccc:	fc1fe0ef          	jal	80000c8c <release>
}
    80001cd0:	60e2                	ld	ra,24(sp)
    80001cd2:	6442                	ld	s0,16(sp)
    80001cd4:	64a2                	ld	s1,8(sp)
    80001cd6:	6105                	addi	sp,sp,32
    80001cd8:	8082                	ret

0000000080001cda <sleep>:

// Atomically release lock and sleep on chan.
// Reacquires lock when awakened.
void
sleep(void *chan, struct spinlock *lk)
{
    80001cda:	7179                	addi	sp,sp,-48
    80001cdc:	f406                	sd	ra,40(sp)
    80001cde:	f022                	sd	s0,32(sp)
    80001ce0:	ec26                	sd	s1,24(sp)
    80001ce2:	e84a                	sd	s2,16(sp)
    80001ce4:	e44e                	sd	s3,8(sp)
    80001ce6:	1800                	addi	s0,sp,48
    80001ce8:	89aa                	mv	s3,a0
    80001cea:	892e                	mv	s2,a1
  struct proc *p = myproc();
    80001cec:	c07ff0ef          	jal	800018f2 <myproc>
    80001cf0:	84aa                	mv	s1,a0
  // Once we hold p->lock, we can be
  // guaranteed that we won't miss any wakeup
  // (wakeup locks p->lock),
  // so it's okay to release lk.

  acquire(&p->lock);  //DOC: sleeplock1
    80001cf2:	f03fe0ef          	jal	80000bf4 <acquire>
  release(lk);
    80001cf6:	854a                	mv	a0,s2
    80001cf8:	f95fe0ef          	jal	80000c8c <release>

  // Go to sleep.
  p->chan = chan;
    80001cfc:	0334b023          	sd	s3,32(s1)
  p->state = SLEEPING;
    80001d00:	4789                	li	a5,2
    80001d02:	cc9c                	sw	a5,24(s1)

  sched();
    80001d04:	ef1ff0ef          	jal	80001bf4 <sched>

  // Tidy up.
  p->chan = 0;
    80001d08:	0204b023          	sd	zero,32(s1)

  // Reacquire original lock.
  release(&p->lock);
    80001d0c:	8526                	mv	a0,s1
    80001d0e:	f7ffe0ef          	jal	80000c8c <release>
  acquire(lk);
    80001d12:	854a                	mv	a0,s2
    80001d14:	ee1fe0ef          	jal	80000bf4 <acquire>
}
    80001d18:	70a2                	ld	ra,40(sp)
    80001d1a:	7402                	ld	s0,32(sp)
    80001d1c:	64e2                	ld	s1,24(sp)
    80001d1e:	6942                	ld	s2,16(sp)
    80001d20:	69a2                	ld	s3,8(sp)
    80001d22:	6145                	addi	sp,sp,48
    80001d24:	8082                	ret

0000000080001d26 <wakeup>:

// Wake up all processes sleeping on chan.
// Must be called without any p->lock.
void
wakeup(void *chan)
{
    80001d26:	7139                	addi	sp,sp,-64
    80001d28:	fc06                	sd	ra,56(sp)
    80001d2a:	f822                	sd	s0,48(sp)
    80001d2c:	f426                	sd	s1,40(sp)
    80001d2e:	f04a                	sd	s2,32(sp)
    80001d30:	ec4e                	sd	s3,24(sp)
    80001d32:	e852                	sd	s4,16(sp)
    80001d34:	e456                	sd	s5,8(sp)
    80001d36:	0080                	addi	s0,sp,64
    80001d38:	8a2a                	mv	s4,a0
  struct proc *p;

  for(p = proc; p < &proc[NPROC]; p++) {
    80001d3a:	0000e497          	auipc	s1,0xe
    80001d3e:	22648493          	addi	s1,s1,550 # 8000ff60 <proc>
    if(p != myproc()){
      acquire(&p->lock);
      if(p->state == SLEEPING && p->chan == chan) {
    80001d42:	4989                	li	s3,2
        p->state = RUNNABLE;
    80001d44:	4a8d                	li	s5,3
  for(p = proc; p < &proc[NPROC]; p++) {
    80001d46:	00014917          	auipc	s2,0x14
    80001d4a:	01a90913          	addi	s2,s2,26 # 80015d60 <tickslock>
    80001d4e:	a801                	j	80001d5e <wakeup+0x38>
      }
      release(&p->lock);
    80001d50:	8526                	mv	a0,s1
    80001d52:	f3bfe0ef          	jal	80000c8c <release>
  for(p = proc; p < &proc[NPROC]; p++) {
    80001d56:	17848493          	addi	s1,s1,376
    80001d5a:	03248263          	beq	s1,s2,80001d7e <wakeup+0x58>
    if(p != myproc()){
    80001d5e:	b95ff0ef          	jal	800018f2 <myproc>
    80001d62:	fea48ae3          	beq	s1,a0,80001d56 <wakeup+0x30>
      acquire(&p->lock);
    80001d66:	8526                	mv	a0,s1
    80001d68:	e8dfe0ef          	jal	80000bf4 <acquire>
      if(p->state == SLEEPING && p->chan == chan) {
    80001d6c:	4c9c                	lw	a5,24(s1)
    80001d6e:	ff3791e3          	bne	a5,s3,80001d50 <wakeup+0x2a>
    80001d72:	709c                	ld	a5,32(s1)
    80001d74:	fd479ee3          	bne	a5,s4,80001d50 <wakeup+0x2a>
        p->state = RUNNABLE;
    80001d78:	0154ac23          	sw	s5,24(s1)
    80001d7c:	bfd1                	j	80001d50 <wakeup+0x2a>
    }
  }
}
    80001d7e:	70e2                	ld	ra,56(sp)
    80001d80:	7442                	ld	s0,48(sp)
    80001d82:	74a2                	ld	s1,40(sp)
    80001d84:	7902                	ld	s2,32(sp)
    80001d86:	69e2                	ld	s3,24(sp)
    80001d88:	6a42                	ld	s4,16(sp)
    80001d8a:	6aa2                	ld	s5,8(sp)
    80001d8c:	6121                	addi	sp,sp,64
    80001d8e:	8082                	ret

0000000080001d90 <reparent>:
{
    80001d90:	7179                	addi	sp,sp,-48
    80001d92:	f406                	sd	ra,40(sp)
    80001d94:	f022                	sd	s0,32(sp)
    80001d96:	ec26                	sd	s1,24(sp)
    80001d98:	e84a                	sd	s2,16(sp)
    80001d9a:	e44e                	sd	s3,8(sp)
    80001d9c:	e052                	sd	s4,0(sp)
    80001d9e:	1800                	addi	s0,sp,48
    80001da0:	892a                	mv	s2,a0
  for(pp = proc; pp < &proc[NPROC]; pp++){
    80001da2:	0000e497          	auipc	s1,0xe
    80001da6:	1be48493          	addi	s1,s1,446 # 8000ff60 <proc>
      pp->parent = initproc;
    80001daa:	00006a17          	auipc	s4,0x6
    80001dae:	bcea0a13          	addi	s4,s4,-1074 # 80007978 <initproc>
  for(pp = proc; pp < &proc[NPROC]; pp++){
    80001db2:	00014997          	auipc	s3,0x14
    80001db6:	fae98993          	addi	s3,s3,-82 # 80015d60 <tickslock>
    80001dba:	a029                	j	80001dc4 <reparent+0x34>
    80001dbc:	17848493          	addi	s1,s1,376
    80001dc0:	01348b63          	beq	s1,s3,80001dd6 <reparent+0x46>
    if(pp->parent == p){
    80001dc4:	7c9c                	ld	a5,56(s1)
    80001dc6:	ff279be3          	bne	a5,s2,80001dbc <reparent+0x2c>
      pp->parent = initproc;
    80001dca:	000a3503          	ld	a0,0(s4)
    80001dce:	fc88                	sd	a0,56(s1)
      wakeup(initproc);
    80001dd0:	f57ff0ef          	jal	80001d26 <wakeup>
    80001dd4:	b7e5                	j	80001dbc <reparent+0x2c>
}
    80001dd6:	70a2                	ld	ra,40(sp)
    80001dd8:	7402                	ld	s0,32(sp)
    80001dda:	64e2                	ld	s1,24(sp)
    80001ddc:	6942                	ld	s2,16(sp)
    80001dde:	69a2                	ld	s3,8(sp)
    80001de0:	6a02                	ld	s4,0(sp)
    80001de2:	6145                	addi	sp,sp,48
    80001de4:	8082                	ret

0000000080001de6 <kill>:
// Kill the process with the given pid.
// The victim won't exit until it tries to return
// to user space (see usertrap() in trap.c).
int
kill(int pid)
{
    80001de6:	7179                	addi	sp,sp,-48
    80001de8:	f406                	sd	ra,40(sp)
    80001dea:	f022                	sd	s0,32(sp)
    80001dec:	ec26                	sd	s1,24(sp)
    80001dee:	e84a                	sd	s2,16(sp)
    80001df0:	e44e                	sd	s3,8(sp)
    80001df2:	1800                	addi	s0,sp,48
    80001df4:	892a                	mv	s2,a0
  struct proc *p;

  for(p = proc; p < &proc[NPROC]; p++){
    80001df6:	0000e497          	auipc	s1,0xe
    80001dfa:	16a48493          	addi	s1,s1,362 # 8000ff60 <proc>
    80001dfe:	00014997          	auipc	s3,0x14
    80001e02:	f6298993          	addi	s3,s3,-158 # 80015d60 <tickslock>
    acquire(&p->lock);
    80001e06:	8526                	mv	a0,s1
    80001e08:	dedfe0ef          	jal	80000bf4 <acquire>
    if(p->pid == pid){
    80001e0c:	589c                	lw	a5,48(s1)
    80001e0e:	01278b63          	beq	a5,s2,80001e24 <kill+0x3e>
        p->state = RUNNABLE;
      }
      release(&p->lock);
      return 0;
    }
    release(&p->lock);
    80001e12:	8526                	mv	a0,s1
    80001e14:	e79fe0ef          	jal	80000c8c <release>
  for(p = proc; p < &proc[NPROC]; p++){
    80001e18:	17848493          	addi	s1,s1,376
    80001e1c:	ff3495e3          	bne	s1,s3,80001e06 <kill+0x20>
  }
  return -1;
    80001e20:	557d                	li	a0,-1
    80001e22:	a819                	j	80001e38 <kill+0x52>
      p->killed = 1;
    80001e24:	4785                	li	a5,1
    80001e26:	d49c                	sw	a5,40(s1)
      if(p->state == SLEEPING){
    80001e28:	4c98                	lw	a4,24(s1)
    80001e2a:	4789                	li	a5,2
    80001e2c:	00f70d63          	beq	a4,a5,80001e46 <kill+0x60>
      release(&p->lock);
    80001e30:	8526                	mv	a0,s1
    80001e32:	e5bfe0ef          	jal	80000c8c <release>
      return 0;
    80001e36:	4501                	li	a0,0
}
    80001e38:	70a2                	ld	ra,40(sp)
    80001e3a:	7402                	ld	s0,32(sp)
    80001e3c:	64e2                	ld	s1,24(sp)
    80001e3e:	6942                	ld	s2,16(sp)
    80001e40:	69a2                	ld	s3,8(sp)
    80001e42:	6145                	addi	sp,sp,48
    80001e44:	8082                	ret
        p->state = RUNNABLE;
    80001e46:	478d                	li	a5,3
    80001e48:	cc9c                	sw	a5,24(s1)
    80001e4a:	b7dd                	j	80001e30 <kill+0x4a>

0000000080001e4c <setkilled>:

void
setkilled(struct proc *p)
{
    80001e4c:	1101                	addi	sp,sp,-32
    80001e4e:	ec06                	sd	ra,24(sp)
    80001e50:	e822                	sd	s0,16(sp)
    80001e52:	e426                	sd	s1,8(sp)
    80001e54:	1000                	addi	s0,sp,32
    80001e56:	84aa                	mv	s1,a0
  acquire(&p->lock);
    80001e58:	d9dfe0ef          	jal	80000bf4 <acquire>
  p->killed = 1;
    80001e5c:	4785                	li	a5,1
    80001e5e:	d49c                	sw	a5,40(s1)
  release(&p->lock);
    80001e60:	8526                	mv	a0,s1
    80001e62:	e2bfe0ef          	jal	80000c8c <release>
}
    80001e66:	60e2                	ld	ra,24(sp)
    80001e68:	6442                	ld	s0,16(sp)
    80001e6a:	64a2                	ld	s1,8(sp)
    80001e6c:	6105                	addi	sp,sp,32
    80001e6e:	8082                	ret

0000000080001e70 <killed>:

int
killed(struct proc *p)
{
    80001e70:	1101                	addi	sp,sp,-32
    80001e72:	ec06                	sd	ra,24(sp)
    80001e74:	e822                	sd	s0,16(sp)
    80001e76:	e426                	sd	s1,8(sp)
    80001e78:	e04a                	sd	s2,0(sp)
    80001e7a:	1000                	addi	s0,sp,32
    80001e7c:	84aa                	mv	s1,a0
  int k;
  
  acquire(&p->lock);
    80001e7e:	d77fe0ef          	jal	80000bf4 <acquire>
  k = p->killed;
    80001e82:	0284a903          	lw	s2,40(s1)
  release(&p->lock);
    80001e86:	8526                	mv	a0,s1
    80001e88:	e05fe0ef          	jal	80000c8c <release>
  return k;
}
    80001e8c:	854a                	mv	a0,s2
    80001e8e:	60e2                	ld	ra,24(sp)
    80001e90:	6442                	ld	s0,16(sp)
    80001e92:	64a2                	ld	s1,8(sp)
    80001e94:	6902                	ld	s2,0(sp)
    80001e96:	6105                	addi	sp,sp,32
    80001e98:	8082                	ret

0000000080001e9a <wait>:
{
    80001e9a:	715d                	addi	sp,sp,-80
    80001e9c:	e486                	sd	ra,72(sp)
    80001e9e:	e0a2                	sd	s0,64(sp)
    80001ea0:	fc26                	sd	s1,56(sp)
    80001ea2:	f84a                	sd	s2,48(sp)
    80001ea4:	f44e                	sd	s3,40(sp)
    80001ea6:	f052                	sd	s4,32(sp)
    80001ea8:	ec56                	sd	s5,24(sp)
    80001eaa:	e85a                	sd	s6,16(sp)
    80001eac:	e45e                	sd	s7,8(sp)
    80001eae:	e062                	sd	s8,0(sp)
    80001eb0:	0880                	addi	s0,sp,80
    80001eb2:	8b2a                	mv	s6,a0
  struct proc *p = myproc();
    80001eb4:	a3fff0ef          	jal	800018f2 <myproc>
    80001eb8:	892a                	mv	s2,a0
  acquire(&wait_lock);
    80001eba:	0000e517          	auipc	a0,0xe
    80001ebe:	c0e50513          	addi	a0,a0,-1010 # 8000fac8 <wait_lock>
    80001ec2:	d33fe0ef          	jal	80000bf4 <acquire>
    havekids = 0;
    80001ec6:	4b81                	li	s7,0
        if(pp->state == ZOMBIE){
    80001ec8:	4a15                	li	s4,5
        havekids = 1;
    80001eca:	4a85                	li	s5,1
    for(pp = proc; pp < &proc[NPROC]; pp++){
    80001ecc:	00014997          	auipc	s3,0x14
    80001ed0:	e9498993          	addi	s3,s3,-364 # 80015d60 <tickslock>
    sleep(p, &wait_lock);  //DOC: wait-sleep
    80001ed4:	0000ec17          	auipc	s8,0xe
    80001ed8:	bf4c0c13          	addi	s8,s8,-1036 # 8000fac8 <wait_lock>
    80001edc:	a871                	j	80001f78 <wait+0xde>
          pid = pp->pid;
    80001ede:	0304a983          	lw	s3,48(s1)
          if(addr != 0 && copyout(p->pagetable, addr, (char *)&pp->xstate,
    80001ee2:	000b0c63          	beqz	s6,80001efa <wait+0x60>
    80001ee6:	4691                	li	a3,4
    80001ee8:	02c48613          	addi	a2,s1,44
    80001eec:	85da                	mv	a1,s6
    80001eee:	05093503          	ld	a0,80(s2)
    80001ef2:	e64ff0ef          	jal	80001556 <copyout>
    80001ef6:	02054b63          	bltz	a0,80001f2c <wait+0x92>
          freeproc(pp);
    80001efa:	8526                	mv	a0,s1
    80001efc:	b69ff0ef          	jal	80001a64 <freeproc>
          release(&pp->lock);
    80001f00:	8526                	mv	a0,s1
    80001f02:	d8bfe0ef          	jal	80000c8c <release>
          release(&wait_lock);
    80001f06:	0000e517          	auipc	a0,0xe
    80001f0a:	bc250513          	addi	a0,a0,-1086 # 8000fac8 <wait_lock>
    80001f0e:	d7ffe0ef          	jal	80000c8c <release>
}
    80001f12:	854e                	mv	a0,s3
    80001f14:	60a6                	ld	ra,72(sp)
    80001f16:	6406                	ld	s0,64(sp)
    80001f18:	74e2                	ld	s1,56(sp)
    80001f1a:	7942                	ld	s2,48(sp)
    80001f1c:	79a2                	ld	s3,40(sp)
    80001f1e:	7a02                	ld	s4,32(sp)
    80001f20:	6ae2                	ld	s5,24(sp)
    80001f22:	6b42                	ld	s6,16(sp)
    80001f24:	6ba2                	ld	s7,8(sp)
    80001f26:	6c02                	ld	s8,0(sp)
    80001f28:	6161                	addi	sp,sp,80
    80001f2a:	8082                	ret
            release(&pp->lock);
    80001f2c:	8526                	mv	a0,s1
    80001f2e:	d5ffe0ef          	jal	80000c8c <release>
            release(&wait_lock);
    80001f32:	0000e517          	auipc	a0,0xe
    80001f36:	b9650513          	addi	a0,a0,-1130 # 8000fac8 <wait_lock>
    80001f3a:	d53fe0ef          	jal	80000c8c <release>
            return -1;
    80001f3e:	59fd                	li	s3,-1
    80001f40:	bfc9                	j	80001f12 <wait+0x78>
    for(pp = proc; pp < &proc[NPROC]; pp++){
    80001f42:	17848493          	addi	s1,s1,376
    80001f46:	03348063          	beq	s1,s3,80001f66 <wait+0xcc>
      if(pp->parent == p){
    80001f4a:	7c9c                	ld	a5,56(s1)
    80001f4c:	ff279be3          	bne	a5,s2,80001f42 <wait+0xa8>
        acquire(&pp->lock);
    80001f50:	8526                	mv	a0,s1
    80001f52:	ca3fe0ef          	jal	80000bf4 <acquire>
        if(pp->state == ZOMBIE){
    80001f56:	4c9c                	lw	a5,24(s1)
    80001f58:	f94783e3          	beq	a5,s4,80001ede <wait+0x44>
        release(&pp->lock);
    80001f5c:	8526                	mv	a0,s1
    80001f5e:	d2ffe0ef          	jal	80000c8c <release>
        havekids = 1;
    80001f62:	8756                	mv	a4,s5
    80001f64:	bff9                	j	80001f42 <wait+0xa8>
    if(!havekids || killed(p)){
    80001f66:	cf19                	beqz	a4,80001f84 <wait+0xea>
    80001f68:	854a                	mv	a0,s2
    80001f6a:	f07ff0ef          	jal	80001e70 <killed>
    80001f6e:	e919                	bnez	a0,80001f84 <wait+0xea>
    sleep(p, &wait_lock);  //DOC: wait-sleep
    80001f70:	85e2                	mv	a1,s8
    80001f72:	854a                	mv	a0,s2
    80001f74:	d67ff0ef          	jal	80001cda <sleep>
    havekids = 0;
    80001f78:	875e                	mv	a4,s7
    for(pp = proc; pp < &proc[NPROC]; pp++){
    80001f7a:	0000e497          	auipc	s1,0xe
    80001f7e:	fe648493          	addi	s1,s1,-26 # 8000ff60 <proc>
    80001f82:	b7e1                	j	80001f4a <wait+0xb0>
      release(&wait_lock);
    80001f84:	0000e517          	auipc	a0,0xe
    80001f88:	b4450513          	addi	a0,a0,-1212 # 8000fac8 <wait_lock>
    80001f8c:	d01fe0ef          	jal	80000c8c <release>
      return -1;
    80001f90:	59fd                	li	s3,-1
    80001f92:	b741                	j	80001f12 <wait+0x78>

0000000080001f94 <either_copyout>:
// Copy to either a user address, or kernel address,
// depending on usr_dst.
// Returns 0 on success, -1 on error.
int
either_copyout(int user_dst, uint64 dst, void *src, uint64 len)
{
    80001f94:	7179                	addi	sp,sp,-48
    80001f96:	f406                	sd	ra,40(sp)
    80001f98:	f022                	sd	s0,32(sp)
    80001f9a:	ec26                	sd	s1,24(sp)
    80001f9c:	e84a                	sd	s2,16(sp)
    80001f9e:	e44e                	sd	s3,8(sp)
    80001fa0:	e052                	sd	s4,0(sp)
    80001fa2:	1800                	addi	s0,sp,48
    80001fa4:	84aa                	mv	s1,a0
    80001fa6:	892e                	mv	s2,a1
    80001fa8:	89b2                	mv	s3,a2
    80001faa:	8a36                	mv	s4,a3
  struct proc *p = myproc();
    80001fac:	947ff0ef          	jal	800018f2 <myproc>
  if(user_dst){
    80001fb0:	cc99                	beqz	s1,80001fce <either_copyout+0x3a>
    return copyout(p->pagetable, dst, src, len);
    80001fb2:	86d2                	mv	a3,s4
    80001fb4:	864e                	mv	a2,s3
    80001fb6:	85ca                	mv	a1,s2
    80001fb8:	6928                	ld	a0,80(a0)
    80001fba:	d9cff0ef          	jal	80001556 <copyout>
  } else {
    memmove((char *)dst, src, len);
    return 0;
  }
}
    80001fbe:	70a2                	ld	ra,40(sp)
    80001fc0:	7402                	ld	s0,32(sp)
    80001fc2:	64e2                	ld	s1,24(sp)
    80001fc4:	6942                	ld	s2,16(sp)
    80001fc6:	69a2                	ld	s3,8(sp)
    80001fc8:	6a02                	ld	s4,0(sp)
    80001fca:	6145                	addi	sp,sp,48
    80001fcc:	8082                	ret
    memmove((char *)dst, src, len);
    80001fce:	000a061b          	sext.w	a2,s4
    80001fd2:	85ce                	mv	a1,s3
    80001fd4:	854a                	mv	a0,s2
    80001fd6:	d4ffe0ef          	jal	80000d24 <memmove>
    return 0;
    80001fda:	8526                	mv	a0,s1
    80001fdc:	b7cd                	j	80001fbe <either_copyout+0x2a>

0000000080001fde <either_copyin>:
// Copy from either a user address, or kernel address,
// depending on usr_src.
// Returns 0 on success, -1 on error.
int
either_copyin(void *dst, int user_src, uint64 src, uint64 len)
{
    80001fde:	7179                	addi	sp,sp,-48
    80001fe0:	f406                	sd	ra,40(sp)
    80001fe2:	f022                	sd	s0,32(sp)
    80001fe4:	ec26                	sd	s1,24(sp)
    80001fe6:	e84a                	sd	s2,16(sp)
    80001fe8:	e44e                	sd	s3,8(sp)
    80001fea:	e052                	sd	s4,0(sp)
    80001fec:	1800                	addi	s0,sp,48
    80001fee:	892a                	mv	s2,a0
    80001ff0:	84ae                	mv	s1,a1
    80001ff2:	89b2                	mv	s3,a2
    80001ff4:	8a36                	mv	s4,a3
  struct proc *p = myproc();
    80001ff6:	8fdff0ef          	jal	800018f2 <myproc>
  if(user_src){
    80001ffa:	cc99                	beqz	s1,80002018 <either_copyin+0x3a>
    return copyin(p->pagetable, dst, src, len);
    80001ffc:	86d2                	mv	a3,s4
    80001ffe:	864e                	mv	a2,s3
    80002000:	85ca                	mv	a1,s2
    80002002:	6928                	ld	a0,80(a0)
    80002004:	e28ff0ef          	jal	8000162c <copyin>
  } else {
    memmove(dst, (char*)src, len);
    return 0;
  }
}
    80002008:	70a2                	ld	ra,40(sp)
    8000200a:	7402                	ld	s0,32(sp)
    8000200c:	64e2                	ld	s1,24(sp)
    8000200e:	6942                	ld	s2,16(sp)
    80002010:	69a2                	ld	s3,8(sp)
    80002012:	6a02                	ld	s4,0(sp)
    80002014:	6145                	addi	sp,sp,48
    80002016:	8082                	ret
    memmove(dst, (char*)src, len);
    80002018:	000a061b          	sext.w	a2,s4
    8000201c:	85ce                	mv	a1,s3
    8000201e:	854a                	mv	a0,s2
    80002020:	d05fe0ef          	jal	80000d24 <memmove>
    return 0;
    80002024:	8526                	mv	a0,s1
    80002026:	b7cd                	j	80002008 <either_copyin+0x2a>

0000000080002028 <procdump>:
// Print a process listing to console.  For debugging.
// Runs when user types ^P on console.
// No lock to avoid wedging a stuck machine further.
void
procdump(void)
{
    80002028:	715d                	addi	sp,sp,-80
    8000202a:	e486                	sd	ra,72(sp)
    8000202c:	e0a2                	sd	s0,64(sp)
    8000202e:	fc26                	sd	s1,56(sp)
    80002030:	f84a                	sd	s2,48(sp)
    80002032:	f44e                	sd	s3,40(sp)
    80002034:	f052                	sd	s4,32(sp)
    80002036:	ec56                	sd	s5,24(sp)
    80002038:	e85a                	sd	s6,16(sp)
    8000203a:	e45e                	sd	s7,8(sp)
    8000203c:	0880                	addi	s0,sp,80
  [ZOMBIE]    "zombie"
  };
  struct proc *p;
  char *state;

  printf("\n");
    8000203e:	00005517          	auipc	a0,0x5
    80002042:	03a50513          	addi	a0,a0,58 # 80007078 <etext+0x78>
    80002046:	c7cfe0ef          	jal	800004c2 <printf>
  for(p = proc; p < &proc[NPROC]; p++){
    8000204a:	0000e497          	auipc	s1,0xe
    8000204e:	06e48493          	addi	s1,s1,110 # 800100b8 <proc+0x158>
    80002052:	00014917          	auipc	s2,0x14
    80002056:	e6690913          	addi	s2,s2,-410 # 80015eb8 <bcache+0x140>
    if(p->state == UNUSED)
      continue;
    if(p->state >= 0 && p->state < NELEM(states) && states[p->state])
    8000205a:	4b15                	li	s6,5
      state = states[p->state];
    else
      state = "???";
    8000205c:	00005997          	auipc	s3,0x5
    80002060:	26498993          	addi	s3,s3,612 # 800072c0 <etext+0x2c0>
    printf("%d %s %s", p->pid, state, p->name);
    80002064:	00005a97          	auipc	s5,0x5
    80002068:	264a8a93          	addi	s5,s5,612 # 800072c8 <etext+0x2c8>
    printf("\n");
    8000206c:	00005a17          	auipc	s4,0x5
    80002070:	00ca0a13          	addi	s4,s4,12 # 80007078 <etext+0x78>
    if(p->state >= 0 && p->state < NELEM(states) && states[p->state])
    80002074:	00005b97          	auipc	s7,0x5
    80002078:	794b8b93          	addi	s7,s7,1940 # 80007808 <states.0>
    8000207c:	a829                	j	80002096 <procdump+0x6e>
    printf("%d %s %s", p->pid, state, p->name);
    8000207e:	ed86a583          	lw	a1,-296(a3)
    80002082:	8556                	mv	a0,s5
    80002084:	c3efe0ef          	jal	800004c2 <printf>
    printf("\n");
    80002088:	8552                	mv	a0,s4
    8000208a:	c38fe0ef          	jal	800004c2 <printf>
  for(p = proc; p < &proc[NPROC]; p++){
    8000208e:	17848493          	addi	s1,s1,376
    80002092:	03248263          	beq	s1,s2,800020b6 <procdump+0x8e>
    if(p->state == UNUSED)
    80002096:	86a6                	mv	a3,s1
    80002098:	ec04a783          	lw	a5,-320(s1)
    8000209c:	dbed                	beqz	a5,8000208e <procdump+0x66>
      state = "???";
    8000209e:	864e                	mv	a2,s3
    if(p->state >= 0 && p->state < NELEM(states) && states[p->state])
    800020a0:	fcfb6fe3          	bltu	s6,a5,8000207e <procdump+0x56>
    800020a4:	02079713          	slli	a4,a5,0x20
    800020a8:	01d75793          	srli	a5,a4,0x1d
    800020ac:	97de                	add	a5,a5,s7
    800020ae:	6390                	ld	a2,0(a5)
    800020b0:	f679                	bnez	a2,8000207e <procdump+0x56>
      state = "???";
    800020b2:	864e                	mv	a2,s3
    800020b4:	b7e9                	j	8000207e <procdump+0x56>
  }
}
    800020b6:	60a6                	ld	ra,72(sp)
    800020b8:	6406                	ld	s0,64(sp)
    800020ba:	74e2                	ld	s1,56(sp)
    800020bc:	7942                	ld	s2,48(sp)
    800020be:	79a2                	ld	s3,40(sp)
    800020c0:	7a02                	ld	s4,32(sp)
    800020c2:	6ae2                	ld	s5,24(sp)
    800020c4:	6b42                	ld	s6,16(sp)
    800020c6:	6ba2                	ld	s7,8(sp)
    800020c8:	6161                	addi	sp,sp,80
    800020ca:	8082                	ret

00000000800020cc <init_priority_control>:

void init_priority_control(void){
    800020cc:	1141                	addi	sp,sp,-16
    800020ce:	e406                	sd	ra,8(sp)
    800020d0:	e022                	sd	s0,0(sp)
    800020d2:	0800                	addi	s0,sp,16

  initlock(&priority_lock,"priority_lock");
    800020d4:	00005597          	auipc	a1,0x5
    800020d8:	20458593          	addi	a1,a1,516 # 800072d8 <etext+0x2d8>
    800020dc:	0000e517          	auipc	a0,0xe
    800020e0:	e0450513          	addi	a0,a0,-508 # 8000fee0 <priority_lock>
    800020e4:	a91fe0ef          	jal	80000b74 <initlock>

  for(int i = 0;i < MAXPRIORITY; i++){
    800020e8:	0000e797          	auipc	a5,0xe
    800020ec:	e2878793          	addi	a5,a5,-472 # 8000ff10 <p_control+0x18>
    800020f0:	0000e717          	auipc	a4,0xe
    800020f4:	e0870713          	addi	a4,a4,-504 # 8000fef8 <p_control>
    800020f8:	0000e697          	auipc	a3,0xe
    800020fc:	e4068693          	addi	a3,a3,-448 # 8000ff38 <p_control+0x40>
    p_control.head_priority[i] = NULL;
    80002100:	0007b023          	sd	zero,0(a5)
    p_control.present[i] = 0;
    80002104:	00072023          	sw	zero,0(a4)
    p_control.current_priority[i] = NULL;
    80002108:	0207b423          	sd	zero,40(a5)
  for(int i = 0;i < MAXPRIORITY; i++){
    8000210c:	07a1                	addi	a5,a5,8
    8000210e:	0711                	addi	a4,a4,4
    80002110:	fed798e3          	bne	a5,a3,80002100 <init_priority_control+0x34>
  }
}
    80002114:	60a2                	ld	ra,8(sp)
    80002116:	6402                	ld	s0,0(sp)
    80002118:	0141                	addi	sp,sp,16
    8000211a:	8082                	ret

000000008000211c <set_priority>:

void set_priority(int priority, struct proc *process){
  if((priority > MAXPRIORITY) || (priority < 0) )
    8000211c:	4795                	li	a5,5
    8000211e:	00a7e563          	bltu	a5,a0,80002128 <set_priority+0xc>
    panic("Priority nos alowed");

  process->priority = priority;
    80002122:	16a5a423          	sw	a0,360(a1)
    80002126:	8082                	ret
void set_priority(int priority, struct proc *process){
    80002128:	1141                	addi	sp,sp,-16
    8000212a:	e406                	sd	ra,8(sp)
    8000212c:	e022                	sd	s0,0(sp)
    8000212e:	0800                	addi	s0,sp,16
    panic("Priority nos alowed");
    80002130:	00005517          	auipc	a0,0x5
    80002134:	1b850513          	addi	a0,a0,440 # 800072e8 <etext+0x2e8>
    80002138:	e5cfe0ef          	jal	80000794 <panic>

000000008000213c <add_process_priority>:

}

//should be called with the lock 
//iterates through linked list to add an element
void add_process_priority(struct proc *p, int priority){
    8000213c:	1141                	addi	sp,sp,-16
    8000213e:	e422                	sd	s0,8(sp)
    80002140:	0800                	addi	s0,sp,16
  struct proc *aux_p;
  //check if lock held

  if(p_control.head_priority[priority] == NULL){
    80002142:	00258713          	addi	a4,a1,2
    80002146:	070e                	slli	a4,a4,0x3
    80002148:	0000e797          	auipc	a5,0xe
    8000214c:	96878793          	addi	a5,a5,-1688 # 8000fab0 <pid_lock>
    80002150:	97ba                	add	a5,a5,a4
    80002152:	4507b783          	ld	a5,1104(a5)
    80002156:	cb91                	beqz	a5,8000216a <add_process_priority+0x2e>
    p_control.head_priority[priority] = p;
  }
  else{
    aux_p = p_control.head_priority[priority];
    while(aux_p->next_p_priority != NULL){
    80002158:	873e                	mv	a4,a5
    8000215a:	1707b783          	ld	a5,368(a5)
    8000215e:	ffed                	bnez	a5,80002158 <add_process_priority+0x1c>
      aux_p = aux_p->next_p_priority;
    }
    aux_p->next_p_priority = p;
    80002160:	16a73823          	sd	a0,368(a4)
  }

}
    80002164:	6422                	ld	s0,8(sp)
    80002166:	0141                	addi	sp,sp,16
    80002168:	8082                	ret
    p_control.head_priority[priority] = p;
    8000216a:	0000e797          	auipc	a5,0xe
    8000216e:	94678793          	addi	a5,a5,-1722 # 8000fab0 <pid_lock>
    80002172:	97ba                	add	a5,a5,a4
    80002174:	44a7b823          	sd	a0,1104(a5)
    80002178:	b7f5                	j	80002164 <add_process_priority+0x28>

000000008000217a <allocproc>:
{
    8000217a:	7179                	addi	sp,sp,-48
    8000217c:	f406                	sd	ra,40(sp)
    8000217e:	f022                	sd	s0,32(sp)
    80002180:	ec26                	sd	s1,24(sp)
    80002182:	e84a                	sd	s2,16(sp)
    80002184:	e44e                	sd	s3,8(sp)
    80002186:	1800                	addi	s0,sp,48
    80002188:	89aa                	mv	s3,a0
  for(p = proc; p < &proc[NPROC]; p++) {
    8000218a:	0000e497          	auipc	s1,0xe
    8000218e:	dd648493          	addi	s1,s1,-554 # 8000ff60 <proc>
    80002192:	00014917          	auipc	s2,0x14
    80002196:	bce90913          	addi	s2,s2,-1074 # 80015d60 <tickslock>
    acquire(&p->lock);
    8000219a:	8526                	mv	a0,s1
    8000219c:	a59fe0ef          	jal	80000bf4 <acquire>
    if(p->state == UNUSED) {
    800021a0:	4c9c                	lw	a5,24(s1)
    800021a2:	cb91                	beqz	a5,800021b6 <allocproc+0x3c>
      release(&p->lock);
    800021a4:	8526                	mv	a0,s1
    800021a6:	ae7fe0ef          	jal	80000c8c <release>
  for(p = proc; p < &proc[NPROC]; p++) {
    800021aa:	17848493          	addi	s1,s1,376
    800021ae:	ff2496e3          	bne	s1,s2,8000219a <allocproc+0x20>
  return 0;
    800021b2:	4481                	li	s1,0
    800021b4:	a89d                	j	8000222a <allocproc+0xb0>
  p->pid = allocpid();
    800021b6:	fa6ff0ef          	jal	8000195c <allocpid>
    800021ba:	d888                	sw	a0,48(s1)
  p->state = USED;
    800021bc:	4785                	li	a5,1
    800021be:	cc9c                	sw	a5,24(s1)
  if((p->trapframe = (struct trapframe *)kalloc()) == 0){
    800021c0:	965fe0ef          	jal	80000b24 <kalloc>
    800021c4:	892a                	mv	s2,a0
    800021c6:	eca8                	sd	a0,88(s1)
    800021c8:	c92d                	beqz	a0,8000223a <allocproc+0xc0>
  p->pagetable = proc_pagetable(p);
    800021ca:	8526                	mv	a0,s1
    800021cc:	fceff0ef          	jal	8000199a <proc_pagetable>
    800021d0:	892a                	mv	s2,a0
    800021d2:	e8a8                	sd	a0,80(s1)
  if(p->pagetable == 0){
    800021d4:	c93d                	beqz	a0,8000224a <allocproc+0xd0>
  p->priority = priority;
    800021d6:	1734a423          	sw	s3,360(s1)
  acquire(&priority_lock);
    800021da:	0000e917          	auipc	s2,0xe
    800021de:	d0690913          	addi	s2,s2,-762 # 8000fee0 <priority_lock>
    800021e2:	854a                	mv	a0,s2
    800021e4:	a11fe0ef          	jal	80000bf4 <acquire>
  p_control.present[priority] = 1;
    800021e8:	00299713          	slli	a4,s3,0x2
    800021ec:	0000e797          	auipc	a5,0xe
    800021f0:	8c478793          	addi	a5,a5,-1852 # 8000fab0 <pid_lock>
    800021f4:	97ba                	add	a5,a5,a4
    800021f6:	4705                	li	a4,1
    800021f8:	44e7a423          	sw	a4,1096(a5)
  add_process_priority(p,priority);
    800021fc:	85ce                	mv	a1,s3
    800021fe:	8526                	mv	a0,s1
    80002200:	f3dff0ef          	jal	8000213c <add_process_priority>
  release(&priority_lock);
    80002204:	854a                	mv	a0,s2
    80002206:	a87fe0ef          	jal	80000c8c <release>
  memset(&p->context, 0, sizeof(p->context));
    8000220a:	07000613          	li	a2,112
    8000220e:	4581                	li	a1,0
    80002210:	06048513          	addi	a0,s1,96
    80002214:	ab5fe0ef          	jal	80000cc8 <memset>
  p->context.ra = (uint64)forkret;
    80002218:	fffff797          	auipc	a5,0xfffff
    8000221c:	70a78793          	addi	a5,a5,1802 # 80001922 <forkret>
    80002220:	f0bc                	sd	a5,96(s1)
  p->context.sp = p->kstack + PGSIZE;
    80002222:	60bc                	ld	a5,64(s1)
    80002224:	6705                	lui	a4,0x1
    80002226:	97ba                	add	a5,a5,a4
    80002228:	f4bc                	sd	a5,104(s1)
}
    8000222a:	8526                	mv	a0,s1
    8000222c:	70a2                	ld	ra,40(sp)
    8000222e:	7402                	ld	s0,32(sp)
    80002230:	64e2                	ld	s1,24(sp)
    80002232:	6942                	ld	s2,16(sp)
    80002234:	69a2                	ld	s3,8(sp)
    80002236:	6145                	addi	sp,sp,48
    80002238:	8082                	ret
    freeproc(p);
    8000223a:	8526                	mv	a0,s1
    8000223c:	829ff0ef          	jal	80001a64 <freeproc>
    release(&p->lock);
    80002240:	8526                	mv	a0,s1
    80002242:	a4bfe0ef          	jal	80000c8c <release>
    return 0;
    80002246:	84ca                	mv	s1,s2
    80002248:	b7cd                	j	8000222a <allocproc+0xb0>
    freeproc(p);
    8000224a:	8526                	mv	a0,s1
    8000224c:	819ff0ef          	jal	80001a64 <freeproc>
    release(&p->lock);
    80002250:	8526                	mv	a0,s1
    80002252:	a3bfe0ef          	jal	80000c8c <release>
    return 0;
    80002256:	84ca                	mv	s1,s2
    80002258:	bfc9                	j	8000222a <allocproc+0xb0>

000000008000225a <userinit>:
{
    8000225a:	1101                	addi	sp,sp,-32
    8000225c:	ec06                	sd	ra,24(sp)
    8000225e:	e822                	sd	s0,16(sp)
    80002260:	e426                	sd	s1,8(sp)
    80002262:	1000                	addi	s0,sp,32
  p = allocproc(2);
    80002264:	4509                	li	a0,2
    80002266:	f15ff0ef          	jal	8000217a <allocproc>
    8000226a:	84aa                	mv	s1,a0
  initproc = p;
    8000226c:	00005797          	auipc	a5,0x5
    80002270:	70a7b623          	sd	a0,1804(a5) # 80007978 <initproc>
  uvmfirst(p->pagetable, initcode, sizeof(initcode));
    80002274:	03400613          	li	a2,52
    80002278:	00005597          	auipc	a1,0x5
    8000227c:	69858593          	addi	a1,a1,1688 # 80007910 <initcode>
    80002280:	6928                	ld	a0,80(a0)
    80002282:	81eff0ef          	jal	800012a0 <uvmfirst>
  p->sz = PGSIZE;
    80002286:	6785                	lui	a5,0x1
    80002288:	e4bc                	sd	a5,72(s1)
  p->trapframe->epc = 0;      // user program counter
    8000228a:	6cb8                	ld	a4,88(s1)
    8000228c:	00073c23          	sd	zero,24(a4) # 1018 <_entry-0x7fffefe8>
  p->trapframe->sp = PGSIZE;  // user stack pointer
    80002290:	6cb8                	ld	a4,88(s1)
    80002292:	fb1c                	sd	a5,48(a4)
  safestrcpy(p->name, "initcode", sizeof(p->name));
    80002294:	4641                	li	a2,16
    80002296:	00005597          	auipc	a1,0x5
    8000229a:	06a58593          	addi	a1,a1,106 # 80007300 <etext+0x300>
    8000229e:	15848513          	addi	a0,s1,344
    800022a2:	b65fe0ef          	jal	80000e06 <safestrcpy>
  p->cwd = namei("/");
    800022a6:	00005517          	auipc	a0,0x5
    800022aa:	06a50513          	addi	a0,a0,106 # 80007310 <etext+0x310>
    800022ae:	7ca010ef          	jal	80003a78 <namei>
    800022b2:	14a4b823          	sd	a0,336(s1)
  p->state = RUNNABLE;
    800022b6:	478d                	li	a5,3
    800022b8:	cc9c                	sw	a5,24(s1)
  release(&p->lock);
    800022ba:	8526                	mv	a0,s1
    800022bc:	9d1fe0ef          	jal	80000c8c <release>
}
    800022c0:	60e2                	ld	ra,24(sp)
    800022c2:	6442                	ld	s0,16(sp)
    800022c4:	64a2                	ld	s1,8(sp)
    800022c6:	6105                	addi	sp,sp,32
    800022c8:	8082                	ret

00000000800022ca <fork>:
{
    800022ca:	7139                	addi	sp,sp,-64
    800022cc:	fc06                	sd	ra,56(sp)
    800022ce:	f822                	sd	s0,48(sp)
    800022d0:	f04a                	sd	s2,32(sp)
    800022d2:	e456                	sd	s5,8(sp)
    800022d4:	0080                	addi	s0,sp,64
  struct proc *p = myproc();
    800022d6:	e1cff0ef          	jal	800018f2 <myproc>
    800022da:	8aaa                	mv	s5,a0
  if((np = allocproc(p->priority)) == 0){
    800022dc:	16852503          	lw	a0,360(a0)
    800022e0:	e9bff0ef          	jal	8000217a <allocproc>
    800022e4:	0e050a63          	beqz	a0,800023d8 <fork+0x10e>
    800022e8:	e852                	sd	s4,16(sp)
    800022ea:	8a2a                	mv	s4,a0
  if(uvmcopy(p->pagetable, np->pagetable, p->sz) < 0){
    800022ec:	048ab603          	ld	a2,72(s5)
    800022f0:	692c                	ld	a1,80(a0)
    800022f2:	050ab503          	ld	a0,80(s5)
    800022f6:	984ff0ef          	jal	8000147a <uvmcopy>
    800022fa:	04054a63          	bltz	a0,8000234e <fork+0x84>
    800022fe:	f426                	sd	s1,40(sp)
    80002300:	ec4e                	sd	s3,24(sp)
  np->sz = p->sz;
    80002302:	048ab783          	ld	a5,72(s5)
    80002306:	04fa3423          	sd	a5,72(s4)
  *(np->trapframe) = *(p->trapframe);
    8000230a:	058ab683          	ld	a3,88(s5)
    8000230e:	87b6                	mv	a5,a3
    80002310:	058a3703          	ld	a4,88(s4)
    80002314:	12068693          	addi	a3,a3,288
    80002318:	0007b803          	ld	a6,0(a5) # 1000 <_entry-0x7ffff000>
    8000231c:	6788                	ld	a0,8(a5)
    8000231e:	6b8c                	ld	a1,16(a5)
    80002320:	6f90                	ld	a2,24(a5)
    80002322:	01073023          	sd	a6,0(a4)
    80002326:	e708                	sd	a0,8(a4)
    80002328:	eb0c                	sd	a1,16(a4)
    8000232a:	ef10                	sd	a2,24(a4)
    8000232c:	02078793          	addi	a5,a5,32
    80002330:	02070713          	addi	a4,a4,32
    80002334:	fed792e3          	bne	a5,a3,80002318 <fork+0x4e>
  np->trapframe->a0 = 0;
    80002338:	058a3783          	ld	a5,88(s4)
    8000233c:	0607b823          	sd	zero,112(a5)
  for(i = 0; i < NOFILE; i++)
    80002340:	0d0a8493          	addi	s1,s5,208
    80002344:	0d0a0913          	addi	s2,s4,208
    80002348:	150a8993          	addi	s3,s5,336
    8000234c:	a831                	j	80002368 <fork+0x9e>
    freeproc(np);
    8000234e:	8552                	mv	a0,s4
    80002350:	f14ff0ef          	jal	80001a64 <freeproc>
    release(&np->lock);
    80002354:	8552                	mv	a0,s4
    80002356:	937fe0ef          	jal	80000c8c <release>
    return -1;
    8000235a:	597d                	li	s2,-1
    8000235c:	6a42                	ld	s4,16(sp)
    8000235e:	a0b5                	j	800023ca <fork+0x100>
  for(i = 0; i < NOFILE; i++)
    80002360:	04a1                	addi	s1,s1,8
    80002362:	0921                	addi	s2,s2,8
    80002364:	01348963          	beq	s1,s3,80002376 <fork+0xac>
    if(p->ofile[i])
    80002368:	6088                	ld	a0,0(s1)
    8000236a:	d97d                	beqz	a0,80002360 <fork+0x96>
      np->ofile[i] = filedup(p->ofile[i]);
    8000236c:	49d010ef          	jal	80004008 <filedup>
    80002370:	00a93023          	sd	a0,0(s2)
    80002374:	b7f5                	j	80002360 <fork+0x96>
  np->cwd = idup(p->cwd);
    80002376:	150ab503          	ld	a0,336(s5)
    8000237a:	7ef000ef          	jal	80003368 <idup>
    8000237e:	14aa3823          	sd	a0,336(s4)
  safestrcpy(np->name, p->name, sizeof(p->name));
    80002382:	4641                	li	a2,16
    80002384:	158a8593          	addi	a1,s5,344
    80002388:	158a0513          	addi	a0,s4,344
    8000238c:	a7bfe0ef          	jal	80000e06 <safestrcpy>
  pid = np->pid;
    80002390:	030a2903          	lw	s2,48(s4)
  release(&np->lock);
    80002394:	8552                	mv	a0,s4
    80002396:	8f7fe0ef          	jal	80000c8c <release>
  acquire(&wait_lock);
    8000239a:	0000d497          	auipc	s1,0xd
    8000239e:	72e48493          	addi	s1,s1,1838 # 8000fac8 <wait_lock>
    800023a2:	8526                	mv	a0,s1
    800023a4:	851fe0ef          	jal	80000bf4 <acquire>
  np->parent = p;
    800023a8:	035a3c23          	sd	s5,56(s4)
  release(&wait_lock);
    800023ac:	8526                	mv	a0,s1
    800023ae:	8dffe0ef          	jal	80000c8c <release>
  acquire(&np->lock);
    800023b2:	8552                	mv	a0,s4
    800023b4:	841fe0ef          	jal	80000bf4 <acquire>
  np->state = RUNNABLE;
    800023b8:	478d                	li	a5,3
    800023ba:	00fa2c23          	sw	a5,24(s4)
  release(&np->lock);
    800023be:	8552                	mv	a0,s4
    800023c0:	8cdfe0ef          	jal	80000c8c <release>
  return pid;
    800023c4:	74a2                	ld	s1,40(sp)
    800023c6:	69e2                	ld	s3,24(sp)
    800023c8:	6a42                	ld	s4,16(sp)
}
    800023ca:	854a                	mv	a0,s2
    800023cc:	70e2                	ld	ra,56(sp)
    800023ce:	7442                	ld	s0,48(sp)
    800023d0:	7902                	ld	s2,32(sp)
    800023d2:	6aa2                	ld	s5,8(sp)
    800023d4:	6121                	addi	sp,sp,64
    800023d6:	8082                	ret
    return -1;
    800023d8:	597d                	li	s2,-1
    800023da:	bfc5                	j	800023ca <fork+0x100>

00000000800023dc <free_process_priority>:

//rearanges the control structure
//updating the linked list
int free_process_priority(struct proc *p){
    800023dc:	1141                	addi	sp,sp,-16
    800023de:	e422                	sd	s0,8(sp)
    800023e0:	0800                	addi	s0,sp,16

  struct proc *p_aux;

  p_aux = p_control.head_priority[p->priority];
    800023e2:	16852703          	lw	a4,360(a0)
    800023e6:	02071693          	slli	a3,a4,0x20
    800023ea:	01d6d793          	srli	a5,a3,0x1d
    800023ee:	0000d697          	auipc	a3,0xd
    800023f2:	6d268693          	addi	a3,a3,1746 # 8000fac0 <pid_lock+0x10>
    800023f6:	97b6                	add	a5,a5,a3
    800023f8:	4507b783          	ld	a5,1104(a5)

  if(p_aux == p){
    800023fc:	02f50163          	beq	a0,a5,8000241e <free_process_priority+0x42>
      p_control.head_priority[p->priority] = p->next_p_priority;  
      p->next_p_priority = NULL;
    }
  }
  else{
    while(p_aux->next_p_priority != p){
    80002400:	873e                	mv	a4,a5
    80002402:	1707b783          	ld	a5,368(a5)
    80002406:	fea79de3          	bne	a5,a0,80002400 <free_process_priority+0x24>
      p_aux = p_aux->next_p_priority;
    }
    p_aux->next_p_priority = p->next_p_priority;
    8000240a:	17053783          	ld	a5,368(a0)
    8000240e:	16f73823          	sd	a5,368(a4)
    p->next_p_priority = NULL;
    80002412:	16053823          	sd	zero,368(a0)
  }
  
  return 0;
}
    80002416:	4501                	li	a0,0
    80002418:	6422                	ld	s0,8(sp)
    8000241a:	0141                	addi	sp,sp,16
    8000241c:	8082                	ret
    if(p->next_p_priority == NULL){
    8000241e:	1707b683          	ld	a3,368(a5)
    80002422:	ce99                	beqz	a3,80002440 <free_process_priority+0x64>
      p_control.head_priority[p->priority] = p->next_p_priority;  
    80002424:	02071613          	slli	a2,a4,0x20
    80002428:	01d65713          	srli	a4,a2,0x1d
    8000242c:	0000d617          	auipc	a2,0xd
    80002430:	69460613          	addi	a2,a2,1684 # 8000fac0 <pid_lock+0x10>
    80002434:	9732                	add	a4,a4,a2
    80002436:	44d73823          	sd	a3,1104(a4)
      p->next_p_priority = NULL;
    8000243a:	1607b823          	sd	zero,368(a5)
    8000243e:	bfe1                	j	80002416 <free_process_priority+0x3a>
      p_control.present[p->priority] = 0;
    80002440:	0000d697          	auipc	a3,0xd
    80002444:	67068693          	addi	a3,a3,1648 # 8000fab0 <pid_lock>
    80002448:	1702                	slli	a4,a4,0x20
    8000244a:	9301                	srli	a4,a4,0x20
    8000244c:	00271793          	slli	a5,a4,0x2
    80002450:	97b6                	add	a5,a5,a3
    80002452:	4407a423          	sw	zero,1096(a5)
      p_control.head_priority[p->priority] = NULL;
    80002456:	0709                	addi	a4,a4,2
    80002458:	00371793          	slli	a5,a4,0x3
    8000245c:	96be                	add	a3,a3,a5
    8000245e:	4406b823          	sd	zero,1104(a3)
    80002462:	bf55                	j	80002416 <free_process_priority+0x3a>

0000000080002464 <exit>:
{
    80002464:	7179                	addi	sp,sp,-48
    80002466:	f406                	sd	ra,40(sp)
    80002468:	f022                	sd	s0,32(sp)
    8000246a:	ec26                	sd	s1,24(sp)
    8000246c:	e84a                	sd	s2,16(sp)
    8000246e:	e44e                	sd	s3,8(sp)
    80002470:	e052                	sd	s4,0(sp)
    80002472:	1800                	addi	s0,sp,48
    80002474:	8a2a                	mv	s4,a0
  struct proc *p = myproc();
    80002476:	c7cff0ef          	jal	800018f2 <myproc>
    8000247a:	89aa                	mv	s3,a0
  if(p == initproc)
    8000247c:	00005797          	auipc	a5,0x5
    80002480:	4fc7b783          	ld	a5,1276(a5) # 80007978 <initproc>
    80002484:	0d050493          	addi	s1,a0,208
    80002488:	15050913          	addi	s2,a0,336
    8000248c:	00a79f63          	bne	a5,a0,800024aa <exit+0x46>
    panic("init exiting");
    80002490:	00005517          	auipc	a0,0x5
    80002494:	e8850513          	addi	a0,a0,-376 # 80007318 <etext+0x318>
    80002498:	afcfe0ef          	jal	80000794 <panic>
      fileclose(f);
    8000249c:	3b3010ef          	jal	8000404e <fileclose>
      p->ofile[fd] = 0;
    800024a0:	0004b023          	sd	zero,0(s1)
  for(int fd = 0; fd < NOFILE; fd++){
    800024a4:	04a1                	addi	s1,s1,8
    800024a6:	01248563          	beq	s1,s2,800024b0 <exit+0x4c>
    if(p->ofile[fd]){
    800024aa:	6088                	ld	a0,0(s1)
    800024ac:	f965                	bnez	a0,8000249c <exit+0x38>
    800024ae:	bfdd                	j	800024a4 <exit+0x40>
  begin_op();
    800024b0:	784010ef          	jal	80003c34 <begin_op>
  iput(p->cwd);
    800024b4:	1509b503          	ld	a0,336(s3)
    800024b8:	068010ef          	jal	80003520 <iput>
  end_op();
    800024bc:	7e2010ef          	jal	80003c9e <end_op>
  p->cwd = 0;
    800024c0:	1409b823          	sd	zero,336(s3)
  acquire(&wait_lock);
    800024c4:	0000d497          	auipc	s1,0xd
    800024c8:	60448493          	addi	s1,s1,1540 # 8000fac8 <wait_lock>
    800024cc:	8526                	mv	a0,s1
    800024ce:	f26fe0ef          	jal	80000bf4 <acquire>
  reparent(p);
    800024d2:	854e                	mv	a0,s3
    800024d4:	8bdff0ef          	jal	80001d90 <reparent>
  wakeup(p->parent);
    800024d8:	0389b503          	ld	a0,56(s3)
    800024dc:	84bff0ef          	jal	80001d26 <wakeup>
  acquire(&p->lock);
    800024e0:	854e                	mv	a0,s3
    800024e2:	f12fe0ef          	jal	80000bf4 <acquire>
  p->xstate = status;
    800024e6:	0349a623          	sw	s4,44(s3)
  p->state = ZOMBIE;
    800024ea:	4795                	li	a5,5
    800024ec:	00f9ac23          	sw	a5,24(s3)
  acquire(&priority_lock);
    800024f0:	0000e917          	auipc	s2,0xe
    800024f4:	9f090913          	addi	s2,s2,-1552 # 8000fee0 <priority_lock>
    800024f8:	854a                	mv	a0,s2
    800024fa:	efafe0ef          	jal	80000bf4 <acquire>
  free_process_priority(p);
    800024fe:	854e                	mv	a0,s3
    80002500:	eddff0ef          	jal	800023dc <free_process_priority>
  release(&priority_lock);
    80002504:	854a                	mv	a0,s2
    80002506:	f86fe0ef          	jal	80000c8c <release>
  release(&wait_lock);
    8000250a:	8526                	mv	a0,s1
    8000250c:	f80fe0ef          	jal	80000c8c <release>
  sched();
    80002510:	ee4ff0ef          	jal	80001bf4 <sched>
  panic("zombie exit");
    80002514:	00005517          	auipc	a0,0x5
    80002518:	e1450513          	addi	a0,a0,-492 # 80007328 <etext+0x328>
    8000251c:	a78fe0ef          	jal	80000794 <panic>

0000000080002520 <swtch>:
    80002520:	00153023          	sd	ra,0(a0)
    80002524:	00253423          	sd	sp,8(a0)
    80002528:	e900                	sd	s0,16(a0)
    8000252a:	ed04                	sd	s1,24(a0)
    8000252c:	03253023          	sd	s2,32(a0)
    80002530:	03353423          	sd	s3,40(a0)
    80002534:	03453823          	sd	s4,48(a0)
    80002538:	03553c23          	sd	s5,56(a0)
    8000253c:	05653023          	sd	s6,64(a0)
    80002540:	05753423          	sd	s7,72(a0)
    80002544:	05853823          	sd	s8,80(a0)
    80002548:	05953c23          	sd	s9,88(a0)
    8000254c:	07a53023          	sd	s10,96(a0)
    80002550:	07b53423          	sd	s11,104(a0)
    80002554:	0005b083          	ld	ra,0(a1)
    80002558:	0085b103          	ld	sp,8(a1)
    8000255c:	6980                	ld	s0,16(a1)
    8000255e:	6d84                	ld	s1,24(a1)
    80002560:	0205b903          	ld	s2,32(a1)
    80002564:	0285b983          	ld	s3,40(a1)
    80002568:	0305ba03          	ld	s4,48(a1)
    8000256c:	0385ba83          	ld	s5,56(a1)
    80002570:	0405bb03          	ld	s6,64(a1)
    80002574:	0485bb83          	ld	s7,72(a1)
    80002578:	0505bc03          	ld	s8,80(a1)
    8000257c:	0585bc83          	ld	s9,88(a1)
    80002580:	0605bd03          	ld	s10,96(a1)
    80002584:	0685bd83          	ld	s11,104(a1)
    80002588:	8082                	ret

000000008000258a <trapinit>:

extern int devintr();

void
trapinit(void)
{
    8000258a:	1141                	addi	sp,sp,-16
    8000258c:	e406                	sd	ra,8(sp)
    8000258e:	e022                	sd	s0,0(sp)
    80002590:	0800                	addi	s0,sp,16
  initlock(&tickslock, "time");
    80002592:	00005597          	auipc	a1,0x5
    80002596:	dd658593          	addi	a1,a1,-554 # 80007368 <etext+0x368>
    8000259a:	00013517          	auipc	a0,0x13
    8000259e:	7c650513          	addi	a0,a0,1990 # 80015d60 <tickslock>
    800025a2:	dd2fe0ef          	jal	80000b74 <initlock>
}
    800025a6:	60a2                	ld	ra,8(sp)
    800025a8:	6402                	ld	s0,0(sp)
    800025aa:	0141                	addi	sp,sp,16
    800025ac:	8082                	ret

00000000800025ae <trapinithart>:

// set up to take exceptions and traps while in the kernel.
void
trapinithart(void)
{
    800025ae:	1141                	addi	sp,sp,-16
    800025b0:	e422                	sd	s0,8(sp)
    800025b2:	0800                	addi	s0,sp,16
  asm volatile("csrw stvec, %0" : : "r" (x));
    800025b4:	00003797          	auipc	a5,0x3
    800025b8:	e0c78793          	addi	a5,a5,-500 # 800053c0 <kernelvec>
    800025bc:	10579073          	csrw	stvec,a5
  w_stvec((uint64)kernelvec);
}
    800025c0:	6422                	ld	s0,8(sp)
    800025c2:	0141                	addi	sp,sp,16
    800025c4:	8082                	ret

00000000800025c6 <usertrapret>:
//
// return to user space
//
void
usertrapret(void)
{
    800025c6:	1141                	addi	sp,sp,-16
    800025c8:	e406                	sd	ra,8(sp)
    800025ca:	e022                	sd	s0,0(sp)
    800025cc:	0800                	addi	s0,sp,16
  struct proc *p = myproc();
    800025ce:	b24ff0ef          	jal	800018f2 <myproc>
  asm volatile("csrr %0, sstatus" : "=r" (x) );
    800025d2:	100027f3          	csrr	a5,sstatus
  w_sstatus(r_sstatus() & ~SSTATUS_SIE);
    800025d6:	9bf5                	andi	a5,a5,-3
  asm volatile("csrw sstatus, %0" : : "r" (x));
    800025d8:	10079073          	csrw	sstatus,a5
  // kerneltrap() to usertrap(), so turn off interrupts until
  // we're back in user space, where usertrap() is correct.
  intr_off();

  // send syscalls, interrupts, and exceptions to uservec in trampoline.S
  uint64 trampoline_uservec = TRAMPOLINE + (uservec - trampoline);
    800025dc:	00004697          	auipc	a3,0x4
    800025e0:	a2468693          	addi	a3,a3,-1500 # 80006000 <_trampoline>
    800025e4:	00004717          	auipc	a4,0x4
    800025e8:	a1c70713          	addi	a4,a4,-1508 # 80006000 <_trampoline>
    800025ec:	8f15                	sub	a4,a4,a3
    800025ee:	040007b7          	lui	a5,0x4000
    800025f2:	17fd                	addi	a5,a5,-1 # 3ffffff <_entry-0x7c000001>
    800025f4:	07b2                	slli	a5,a5,0xc
    800025f6:	973e                	add	a4,a4,a5
  asm volatile("csrw stvec, %0" : : "r" (x));
    800025f8:	10571073          	csrw	stvec,a4
  w_stvec(trampoline_uservec);

  // set up trapframe values that uservec will need when
  // the process next traps into the kernel.
  p->trapframe->kernel_satp = r_satp();         // kernel page table
    800025fc:	6d38                	ld	a4,88(a0)
  asm volatile("csrr %0, satp" : "=r" (x) );
    800025fe:	18002673          	csrr	a2,satp
    80002602:	e310                	sd	a2,0(a4)
  p->trapframe->kernel_sp = p->kstack + PGSIZE; // process's kernel stack
    80002604:	6d30                	ld	a2,88(a0)
    80002606:	6138                	ld	a4,64(a0)
    80002608:	6585                	lui	a1,0x1
    8000260a:	972e                	add	a4,a4,a1
    8000260c:	e618                	sd	a4,8(a2)
  p->trapframe->kernel_trap = (uint64)usertrap;
    8000260e:	6d38                	ld	a4,88(a0)
    80002610:	00000617          	auipc	a2,0x0
    80002614:	11060613          	addi	a2,a2,272 # 80002720 <usertrap>
    80002618:	eb10                	sd	a2,16(a4)
  p->trapframe->kernel_hartid = r_tp();         // hartid for cpuid()
    8000261a:	6d38                	ld	a4,88(a0)
  asm volatile("mv %0, tp" : "=r" (x) );
    8000261c:	8612                	mv	a2,tp
    8000261e:	f310                	sd	a2,32(a4)
  asm volatile("csrr %0, sstatus" : "=r" (x) );
    80002620:	10002773          	csrr	a4,sstatus
  // set up the registers that trampoline.S's sret will use
  // to get to user space.
  
  // set S Previous Privilege mode to User.
  unsigned long x = r_sstatus();
  x &= ~SSTATUS_SPP; // clear SPP to 0 for user mode
    80002624:	eff77713          	andi	a4,a4,-257
  x |= SSTATUS_SPIE; // enable interrupts in user mode
    80002628:	02076713          	ori	a4,a4,32
  asm volatile("csrw sstatus, %0" : : "r" (x));
    8000262c:	10071073          	csrw	sstatus,a4
  w_sstatus(x);

  // set S Exception Program Counter to the saved user pc.
  w_sepc(p->trapframe->epc);
    80002630:	6d38                	ld	a4,88(a0)
  asm volatile("csrw sepc, %0" : : "r" (x));
    80002632:	6f18                	ld	a4,24(a4)
    80002634:	14171073          	csrw	sepc,a4

  // tell trampoline.S the user page table to switch to.
  uint64 satp = MAKE_SATP(p->pagetable);
    80002638:	6928                	ld	a0,80(a0)
    8000263a:	8131                	srli	a0,a0,0xc

  // jump to userret in trampoline.S at the top of memory, which 
  // switches to the user page table, restores user registers,
  // and switches to user mode with sret.
  uint64 trampoline_userret = TRAMPOLINE + (userret - trampoline);
    8000263c:	00004717          	auipc	a4,0x4
    80002640:	a6070713          	addi	a4,a4,-1440 # 8000609c <userret>
    80002644:	8f15                	sub	a4,a4,a3
    80002646:	97ba                	add	a5,a5,a4
  ((void (*)(uint64))trampoline_userret)(satp);
    80002648:	577d                	li	a4,-1
    8000264a:	177e                	slli	a4,a4,0x3f
    8000264c:	8d59                	or	a0,a0,a4
    8000264e:	9782                	jalr	a5
}
    80002650:	60a2                	ld	ra,8(sp)
    80002652:	6402                	ld	s0,0(sp)
    80002654:	0141                	addi	sp,sp,16
    80002656:	8082                	ret

0000000080002658 <clockintr>:
  w_sstatus(sstatus);
}

void
clockintr()
{
    80002658:	1101                	addi	sp,sp,-32
    8000265a:	ec06                	sd	ra,24(sp)
    8000265c:	e822                	sd	s0,16(sp)
    8000265e:	1000                	addi	s0,sp,32
  if(cpuid() == 0){
    80002660:	a66ff0ef          	jal	800018c6 <cpuid>
    80002664:	cd11                	beqz	a0,80002680 <clockintr+0x28>
  asm volatile("csrr %0, time" : "=r" (x) );
    80002666:	c01027f3          	rdtime	a5
  }

  // ask for the next timer interrupt. this also clears
  // the interrupt request. 1000000 is about a tenth
  // of a second.
  w_stimecmp(r_time() + 1000000);
    8000266a:	000f4737          	lui	a4,0xf4
    8000266e:	24070713          	addi	a4,a4,576 # f4240 <_entry-0x7ff0bdc0>
    80002672:	97ba                	add	a5,a5,a4
  asm volatile("csrw stimecmp, %0" : : "r" (x));
    80002674:	14d79073          	csrw	stimecmp,a5
}
    80002678:	60e2                	ld	ra,24(sp)
    8000267a:	6442                	ld	s0,16(sp)
    8000267c:	6105                	addi	sp,sp,32
    8000267e:	8082                	ret
    80002680:	e426                	sd	s1,8(sp)
    acquire(&tickslock);
    80002682:	00013497          	auipc	s1,0x13
    80002686:	6de48493          	addi	s1,s1,1758 # 80015d60 <tickslock>
    8000268a:	8526                	mv	a0,s1
    8000268c:	d68fe0ef          	jal	80000bf4 <acquire>
    ticks++;
    80002690:	00005517          	auipc	a0,0x5
    80002694:	2f050513          	addi	a0,a0,752 # 80007980 <ticks>
    80002698:	411c                	lw	a5,0(a0)
    8000269a:	2785                	addiw	a5,a5,1
    8000269c:	c11c                	sw	a5,0(a0)
    wakeup(&ticks);
    8000269e:	e88ff0ef          	jal	80001d26 <wakeup>
    release(&tickslock);
    800026a2:	8526                	mv	a0,s1
    800026a4:	de8fe0ef          	jal	80000c8c <release>
    800026a8:	64a2                	ld	s1,8(sp)
    800026aa:	bf75                	j	80002666 <clockintr+0xe>

00000000800026ac <devintr>:
// returns 2 if timer interrupt,
// 1 if other device,
// 0 if not recognized.
int
devintr()
{
    800026ac:	1101                	addi	sp,sp,-32
    800026ae:	ec06                	sd	ra,24(sp)
    800026b0:	e822                	sd	s0,16(sp)
    800026b2:	1000                	addi	s0,sp,32
  asm volatile("csrr %0, scause" : "=r" (x) );
    800026b4:	14202773          	csrr	a4,scause
  uint64 scause = r_scause();

  if(scause == 0x8000000000000009L){
    800026b8:	57fd                	li	a5,-1
    800026ba:	17fe                	slli	a5,a5,0x3f
    800026bc:	07a5                	addi	a5,a5,9
    800026be:	00f70c63          	beq	a4,a5,800026d6 <devintr+0x2a>
    // now allowed to interrupt again.
    if(irq)
      plic_complete(irq);

    return 1;
  } else if(scause == 0x8000000000000005L){
    800026c2:	57fd                	li	a5,-1
    800026c4:	17fe                	slli	a5,a5,0x3f
    800026c6:	0795                	addi	a5,a5,5
    // timer interrupt.
    clockintr();
    return 2;
  } else {
    return 0;
    800026c8:	4501                	li	a0,0
  } else if(scause == 0x8000000000000005L){
    800026ca:	04f70763          	beq	a4,a5,80002718 <devintr+0x6c>
  }
}
    800026ce:	60e2                	ld	ra,24(sp)
    800026d0:	6442                	ld	s0,16(sp)
    800026d2:	6105                	addi	sp,sp,32
    800026d4:	8082                	ret
    800026d6:	e426                	sd	s1,8(sp)
    int irq = plic_claim();
    800026d8:	595020ef          	jal	8000546c <plic_claim>
    800026dc:	84aa                	mv	s1,a0
    if(irq == UART0_IRQ){
    800026de:	47a9                	li	a5,10
    800026e0:	00f50963          	beq	a0,a5,800026f2 <devintr+0x46>
    } else if(irq == VIRTIO0_IRQ){
    800026e4:	4785                	li	a5,1
    800026e6:	00f50963          	beq	a0,a5,800026f8 <devintr+0x4c>
    return 1;
    800026ea:	4505                	li	a0,1
    } else if(irq){
    800026ec:	e889                	bnez	s1,800026fe <devintr+0x52>
    800026ee:	64a2                	ld	s1,8(sp)
    800026f0:	bff9                	j	800026ce <devintr+0x22>
      uartintr();
    800026f2:	b14fe0ef          	jal	80000a06 <uartintr>
    if(irq)
    800026f6:	a819                	j	8000270c <devintr+0x60>
      virtio_disk_intr();
    800026f8:	23a030ef          	jal	80005932 <virtio_disk_intr>
    if(irq)
    800026fc:	a801                	j	8000270c <devintr+0x60>
      printf("unexpected interrupt irq=%d\n", irq);
    800026fe:	85a6                	mv	a1,s1
    80002700:	00005517          	auipc	a0,0x5
    80002704:	c7050513          	addi	a0,a0,-912 # 80007370 <etext+0x370>
    80002708:	dbbfd0ef          	jal	800004c2 <printf>
      plic_complete(irq);
    8000270c:	8526                	mv	a0,s1
    8000270e:	57f020ef          	jal	8000548c <plic_complete>
    return 1;
    80002712:	4505                	li	a0,1
    80002714:	64a2                	ld	s1,8(sp)
    80002716:	bf65                	j	800026ce <devintr+0x22>
    clockintr();
    80002718:	f41ff0ef          	jal	80002658 <clockintr>
    return 2;
    8000271c:	4509                	li	a0,2
    8000271e:	bf45                	j	800026ce <devintr+0x22>

0000000080002720 <usertrap>:
{
    80002720:	1101                	addi	sp,sp,-32
    80002722:	ec06                	sd	ra,24(sp)
    80002724:	e822                	sd	s0,16(sp)
    80002726:	e426                	sd	s1,8(sp)
    80002728:	e04a                	sd	s2,0(sp)
    8000272a:	1000                	addi	s0,sp,32
  asm volatile("csrr %0, sstatus" : "=r" (x) );
    8000272c:	100027f3          	csrr	a5,sstatus
  if((r_sstatus() & SSTATUS_SPP) != 0)
    80002730:	1007f793          	andi	a5,a5,256
    80002734:	ef85                	bnez	a5,8000276c <usertrap+0x4c>
  asm volatile("csrw stvec, %0" : : "r" (x));
    80002736:	00003797          	auipc	a5,0x3
    8000273a:	c8a78793          	addi	a5,a5,-886 # 800053c0 <kernelvec>
    8000273e:	10579073          	csrw	stvec,a5
  struct proc *p = myproc();
    80002742:	9b0ff0ef          	jal	800018f2 <myproc>
    80002746:	84aa                	mv	s1,a0
  p->trapframe->epc = r_sepc();
    80002748:	6d3c                	ld	a5,88(a0)
  asm volatile("csrr %0, sepc" : "=r" (x) );
    8000274a:	14102773          	csrr	a4,sepc
    8000274e:	ef98                	sd	a4,24(a5)
  asm volatile("csrr %0, scause" : "=r" (x) );
    80002750:	14202773          	csrr	a4,scause
  if(r_scause() == 8){
    80002754:	47a1                	li	a5,8
    80002756:	02f70163          	beq	a4,a5,80002778 <usertrap+0x58>
  } else if((which_dev = devintr()) != 0){
    8000275a:	f53ff0ef          	jal	800026ac <devintr>
    8000275e:	892a                	mv	s2,a0
    80002760:	c135                	beqz	a0,800027c4 <usertrap+0xa4>
  if(killed(p))
    80002762:	8526                	mv	a0,s1
    80002764:	f0cff0ef          	jal	80001e70 <killed>
    80002768:	cd1d                	beqz	a0,800027a6 <usertrap+0x86>
    8000276a:	a81d                	j	800027a0 <usertrap+0x80>
    panic("usertrap: not from user mode");
    8000276c:	00005517          	auipc	a0,0x5
    80002770:	c2450513          	addi	a0,a0,-988 # 80007390 <etext+0x390>
    80002774:	820fe0ef          	jal	80000794 <panic>
    if(killed(p))
    80002778:	ef8ff0ef          	jal	80001e70 <killed>
    8000277c:	e121                	bnez	a0,800027bc <usertrap+0x9c>
    p->trapframe->epc += 4;
    8000277e:	6cb8                	ld	a4,88(s1)
    80002780:	6f1c                	ld	a5,24(a4)
    80002782:	0791                	addi	a5,a5,4
    80002784:	ef1c                	sd	a5,24(a4)
  asm volatile("csrr %0, sstatus" : "=r" (x) );
    80002786:	100027f3          	csrr	a5,sstatus
  w_sstatus(r_sstatus() | SSTATUS_SIE);
    8000278a:	0027e793          	ori	a5,a5,2
  asm volatile("csrw sstatus, %0" : : "r" (x));
    8000278e:	10079073          	csrw	sstatus,a5
    syscall();
    80002792:	248000ef          	jal	800029da <syscall>
  if(killed(p))
    80002796:	8526                	mv	a0,s1
    80002798:	ed8ff0ef          	jal	80001e70 <killed>
    8000279c:	c901                	beqz	a0,800027ac <usertrap+0x8c>
    8000279e:	4901                	li	s2,0
    exit(-1);
    800027a0:	557d                	li	a0,-1
    800027a2:	cc3ff0ef          	jal	80002464 <exit>
  if(which_dev == 2)
    800027a6:	4789                	li	a5,2
    800027a8:	04f90563          	beq	s2,a5,800027f2 <usertrap+0xd2>
  usertrapret();
    800027ac:	e1bff0ef          	jal	800025c6 <usertrapret>
}
    800027b0:	60e2                	ld	ra,24(sp)
    800027b2:	6442                	ld	s0,16(sp)
    800027b4:	64a2                	ld	s1,8(sp)
    800027b6:	6902                	ld	s2,0(sp)
    800027b8:	6105                	addi	sp,sp,32
    800027ba:	8082                	ret
      exit(-1);
    800027bc:	557d                	li	a0,-1
    800027be:	ca7ff0ef          	jal	80002464 <exit>
    800027c2:	bf75                	j	8000277e <usertrap+0x5e>
  asm volatile("csrr %0, scause" : "=r" (x) );
    800027c4:	142025f3          	csrr	a1,scause
    printf("usertrap(): unexpected scause 0x%lx pid=%d\n", r_scause(), p->pid);
    800027c8:	5890                	lw	a2,48(s1)
    800027ca:	00005517          	auipc	a0,0x5
    800027ce:	be650513          	addi	a0,a0,-1050 # 800073b0 <etext+0x3b0>
    800027d2:	cf1fd0ef          	jal	800004c2 <printf>
  asm volatile("csrr %0, sepc" : "=r" (x) );
    800027d6:	141025f3          	csrr	a1,sepc
  asm volatile("csrr %0, stval" : "=r" (x) );
    800027da:	14302673          	csrr	a2,stval
    printf("            sepc=0x%lx stval=0x%lx\n", r_sepc(), r_stval());
    800027de:	00005517          	auipc	a0,0x5
    800027e2:	c0250513          	addi	a0,a0,-1022 # 800073e0 <etext+0x3e0>
    800027e6:	cddfd0ef          	jal	800004c2 <printf>
    setkilled(p);
    800027ea:	8526                	mv	a0,s1
    800027ec:	e60ff0ef          	jal	80001e4c <setkilled>
    800027f0:	b75d                	j	80002796 <usertrap+0x76>
    yield();
    800027f2:	cbcff0ef          	jal	80001cae <yield>
    800027f6:	bf5d                	j	800027ac <usertrap+0x8c>

00000000800027f8 <kerneltrap>:
{
    800027f8:	7179                	addi	sp,sp,-48
    800027fa:	f406                	sd	ra,40(sp)
    800027fc:	f022                	sd	s0,32(sp)
    800027fe:	ec26                	sd	s1,24(sp)
    80002800:	e84a                	sd	s2,16(sp)
    80002802:	e44e                	sd	s3,8(sp)
    80002804:	1800                	addi	s0,sp,48
  asm volatile("csrr %0, sepc" : "=r" (x) );
    80002806:	14102973          	csrr	s2,sepc
  asm volatile("csrr %0, sstatus" : "=r" (x) );
    8000280a:	100024f3          	csrr	s1,sstatus
  asm volatile("csrr %0, scause" : "=r" (x) );
    8000280e:	142029f3          	csrr	s3,scause
  if((sstatus & SSTATUS_SPP) == 0)
    80002812:	1004f793          	andi	a5,s1,256
    80002816:	c795                	beqz	a5,80002842 <kerneltrap+0x4a>
  asm volatile("csrr %0, sstatus" : "=r" (x) );
    80002818:	100027f3          	csrr	a5,sstatus
  return (x & SSTATUS_SIE) != 0;
    8000281c:	8b89                	andi	a5,a5,2
  if(intr_get() != 0)
    8000281e:	eb85                	bnez	a5,8000284e <kerneltrap+0x56>
  if((which_dev = devintr()) == 0){
    80002820:	e8dff0ef          	jal	800026ac <devintr>
    80002824:	c91d                	beqz	a0,8000285a <kerneltrap+0x62>
  if(which_dev == 2 && myproc() != 0)
    80002826:	4789                	li	a5,2
    80002828:	04f50a63          	beq	a0,a5,8000287c <kerneltrap+0x84>
  asm volatile("csrw sepc, %0" : : "r" (x));
    8000282c:	14191073          	csrw	sepc,s2
  asm volatile("csrw sstatus, %0" : : "r" (x));
    80002830:	10049073          	csrw	sstatus,s1
}
    80002834:	70a2                	ld	ra,40(sp)
    80002836:	7402                	ld	s0,32(sp)
    80002838:	64e2                	ld	s1,24(sp)
    8000283a:	6942                	ld	s2,16(sp)
    8000283c:	69a2                	ld	s3,8(sp)
    8000283e:	6145                	addi	sp,sp,48
    80002840:	8082                	ret
    panic("kerneltrap: not from supervisor mode");
    80002842:	00005517          	auipc	a0,0x5
    80002846:	bc650513          	addi	a0,a0,-1082 # 80007408 <etext+0x408>
    8000284a:	f4bfd0ef          	jal	80000794 <panic>
    panic("kerneltrap: interrupts enabled");
    8000284e:	00005517          	auipc	a0,0x5
    80002852:	be250513          	addi	a0,a0,-1054 # 80007430 <etext+0x430>
    80002856:	f3ffd0ef          	jal	80000794 <panic>
  asm volatile("csrr %0, sepc" : "=r" (x) );
    8000285a:	14102673          	csrr	a2,sepc
  asm volatile("csrr %0, stval" : "=r" (x) );
    8000285e:	143026f3          	csrr	a3,stval
    printf("scause=0x%lx sepc=0x%lx stval=0x%lx\n", scause, r_sepc(), r_stval());
    80002862:	85ce                	mv	a1,s3
    80002864:	00005517          	auipc	a0,0x5
    80002868:	bec50513          	addi	a0,a0,-1044 # 80007450 <etext+0x450>
    8000286c:	c57fd0ef          	jal	800004c2 <printf>
    panic("kerneltrap");
    80002870:	00005517          	auipc	a0,0x5
    80002874:	c0850513          	addi	a0,a0,-1016 # 80007478 <etext+0x478>
    80002878:	f1dfd0ef          	jal	80000794 <panic>
  if(which_dev == 2 && myproc() != 0)
    8000287c:	876ff0ef          	jal	800018f2 <myproc>
    80002880:	d555                	beqz	a0,8000282c <kerneltrap+0x34>
    yield();
    80002882:	c2cff0ef          	jal	80001cae <yield>
    80002886:	b75d                	j	8000282c <kerneltrap+0x34>

0000000080002888 <argraw>:
  return strlen(buf);
}

static uint64
argraw(int n)
{
    80002888:	1101                	addi	sp,sp,-32
    8000288a:	ec06                	sd	ra,24(sp)
    8000288c:	e822                	sd	s0,16(sp)
    8000288e:	e426                	sd	s1,8(sp)
    80002890:	1000                	addi	s0,sp,32
    80002892:	84aa                	mv	s1,a0
  struct proc *p = myproc();
    80002894:	85eff0ef          	jal	800018f2 <myproc>
  switch (n) {
    80002898:	4795                	li	a5,5
    8000289a:	0497e163          	bltu	a5,s1,800028dc <argraw+0x54>
    8000289e:	048a                	slli	s1,s1,0x2
    800028a0:	00005717          	auipc	a4,0x5
    800028a4:	f9870713          	addi	a4,a4,-104 # 80007838 <states.0+0x30>
    800028a8:	94ba                	add	s1,s1,a4
    800028aa:	409c                	lw	a5,0(s1)
    800028ac:	97ba                	add	a5,a5,a4
    800028ae:	8782                	jr	a5
  case 0:
    return p->trapframe->a0;
    800028b0:	6d3c                	ld	a5,88(a0)
    800028b2:	7ba8                	ld	a0,112(a5)
  case 5:
    return p->trapframe->a5;
  }
  panic("argraw");
  return -1;
}
    800028b4:	60e2                	ld	ra,24(sp)
    800028b6:	6442                	ld	s0,16(sp)
    800028b8:	64a2                	ld	s1,8(sp)
    800028ba:	6105                	addi	sp,sp,32
    800028bc:	8082                	ret
    return p->trapframe->a1;
    800028be:	6d3c                	ld	a5,88(a0)
    800028c0:	7fa8                	ld	a0,120(a5)
    800028c2:	bfcd                	j	800028b4 <argraw+0x2c>
    return p->trapframe->a2;
    800028c4:	6d3c                	ld	a5,88(a0)
    800028c6:	63c8                	ld	a0,128(a5)
    800028c8:	b7f5                	j	800028b4 <argraw+0x2c>
    return p->trapframe->a3;
    800028ca:	6d3c                	ld	a5,88(a0)
    800028cc:	67c8                	ld	a0,136(a5)
    800028ce:	b7dd                	j	800028b4 <argraw+0x2c>
    return p->trapframe->a4;
    800028d0:	6d3c                	ld	a5,88(a0)
    800028d2:	6bc8                	ld	a0,144(a5)
    800028d4:	b7c5                	j	800028b4 <argraw+0x2c>
    return p->trapframe->a5;
    800028d6:	6d3c                	ld	a5,88(a0)
    800028d8:	6fc8                	ld	a0,152(a5)
    800028da:	bfe9                	j	800028b4 <argraw+0x2c>
  panic("argraw");
    800028dc:	00005517          	auipc	a0,0x5
    800028e0:	bac50513          	addi	a0,a0,-1108 # 80007488 <etext+0x488>
    800028e4:	eb1fd0ef          	jal	80000794 <panic>

00000000800028e8 <fetchaddr>:
{
    800028e8:	1101                	addi	sp,sp,-32
    800028ea:	ec06                	sd	ra,24(sp)
    800028ec:	e822                	sd	s0,16(sp)
    800028ee:	e426                	sd	s1,8(sp)
    800028f0:	e04a                	sd	s2,0(sp)
    800028f2:	1000                	addi	s0,sp,32
    800028f4:	84aa                	mv	s1,a0
    800028f6:	892e                	mv	s2,a1
  struct proc *p = myproc();
    800028f8:	ffbfe0ef          	jal	800018f2 <myproc>
  if(addr >= p->sz || addr+sizeof(uint64) > p->sz) // both tests needed, in case of overflow
    800028fc:	653c                	ld	a5,72(a0)
    800028fe:	02f4f663          	bgeu	s1,a5,8000292a <fetchaddr+0x42>
    80002902:	00848713          	addi	a4,s1,8
    80002906:	02e7e463          	bltu	a5,a4,8000292e <fetchaddr+0x46>
  if(copyin(p->pagetable, (char *)ip, addr, sizeof(*ip)) != 0)
    8000290a:	46a1                	li	a3,8
    8000290c:	8626                	mv	a2,s1
    8000290e:	85ca                	mv	a1,s2
    80002910:	6928                	ld	a0,80(a0)
    80002912:	d1bfe0ef          	jal	8000162c <copyin>
    80002916:	00a03533          	snez	a0,a0
    8000291a:	40a00533          	neg	a0,a0
}
    8000291e:	60e2                	ld	ra,24(sp)
    80002920:	6442                	ld	s0,16(sp)
    80002922:	64a2                	ld	s1,8(sp)
    80002924:	6902                	ld	s2,0(sp)
    80002926:	6105                	addi	sp,sp,32
    80002928:	8082                	ret
    return -1;
    8000292a:	557d                	li	a0,-1
    8000292c:	bfcd                	j	8000291e <fetchaddr+0x36>
    8000292e:	557d                	li	a0,-1
    80002930:	b7fd                	j	8000291e <fetchaddr+0x36>

0000000080002932 <fetchstr>:
{
    80002932:	7179                	addi	sp,sp,-48
    80002934:	f406                	sd	ra,40(sp)
    80002936:	f022                	sd	s0,32(sp)
    80002938:	ec26                	sd	s1,24(sp)
    8000293a:	e84a                	sd	s2,16(sp)
    8000293c:	e44e                	sd	s3,8(sp)
    8000293e:	1800                	addi	s0,sp,48
    80002940:	892a                	mv	s2,a0
    80002942:	84ae                	mv	s1,a1
    80002944:	89b2                	mv	s3,a2
  struct proc *p = myproc();
    80002946:	fadfe0ef          	jal	800018f2 <myproc>
  if(copyinstr(p->pagetable, buf, addr, max) < 0)
    8000294a:	86ce                	mv	a3,s3
    8000294c:	864a                	mv	a2,s2
    8000294e:	85a6                	mv	a1,s1
    80002950:	6928                	ld	a0,80(a0)
    80002952:	d61fe0ef          	jal	800016b2 <copyinstr>
    80002956:	00054c63          	bltz	a0,8000296e <fetchstr+0x3c>
  return strlen(buf);
    8000295a:	8526                	mv	a0,s1
    8000295c:	cdcfe0ef          	jal	80000e38 <strlen>
}
    80002960:	70a2                	ld	ra,40(sp)
    80002962:	7402                	ld	s0,32(sp)
    80002964:	64e2                	ld	s1,24(sp)
    80002966:	6942                	ld	s2,16(sp)
    80002968:	69a2                	ld	s3,8(sp)
    8000296a:	6145                	addi	sp,sp,48
    8000296c:	8082                	ret
    return -1;
    8000296e:	557d                	li	a0,-1
    80002970:	bfc5                	j	80002960 <fetchstr+0x2e>

0000000080002972 <argint>:

// Fetch the nth 32-bit system call argument.
void
argint(int n, int *ip)
{
    80002972:	1101                	addi	sp,sp,-32
    80002974:	ec06                	sd	ra,24(sp)
    80002976:	e822                	sd	s0,16(sp)
    80002978:	e426                	sd	s1,8(sp)
    8000297a:	1000                	addi	s0,sp,32
    8000297c:	84ae                	mv	s1,a1
  *ip = argraw(n);
    8000297e:	f0bff0ef          	jal	80002888 <argraw>
    80002982:	c088                	sw	a0,0(s1)
}
    80002984:	60e2                	ld	ra,24(sp)
    80002986:	6442                	ld	s0,16(sp)
    80002988:	64a2                	ld	s1,8(sp)
    8000298a:	6105                	addi	sp,sp,32
    8000298c:	8082                	ret

000000008000298e <argaddr>:
// Retrieve an argument as a pointer.
// Doesn't check for legality, since
// copyin/copyout will do that.
void
argaddr(int n, uint64 *ip)
{
    8000298e:	1101                	addi	sp,sp,-32
    80002990:	ec06                	sd	ra,24(sp)
    80002992:	e822                	sd	s0,16(sp)
    80002994:	e426                	sd	s1,8(sp)
    80002996:	1000                	addi	s0,sp,32
    80002998:	84ae                	mv	s1,a1
  *ip = argraw(n);
    8000299a:	eefff0ef          	jal	80002888 <argraw>
    8000299e:	e088                	sd	a0,0(s1)
}
    800029a0:	60e2                	ld	ra,24(sp)
    800029a2:	6442                	ld	s0,16(sp)
    800029a4:	64a2                	ld	s1,8(sp)
    800029a6:	6105                	addi	sp,sp,32
    800029a8:	8082                	ret

00000000800029aa <argstr>:
// Fetch the nth word-sized system call argument as a null-terminated string.
// Copies into buf, at most max.
// Returns string length if OK (including nul), -1 if error.
int
argstr(int n, char *buf, int max)
{
    800029aa:	7179                	addi	sp,sp,-48
    800029ac:	f406                	sd	ra,40(sp)
    800029ae:	f022                	sd	s0,32(sp)
    800029b0:	ec26                	sd	s1,24(sp)
    800029b2:	e84a                	sd	s2,16(sp)
    800029b4:	1800                	addi	s0,sp,48
    800029b6:	84ae                	mv	s1,a1
    800029b8:	8932                	mv	s2,a2
  uint64 addr;
  argaddr(n, &addr);
    800029ba:	fd840593          	addi	a1,s0,-40
    800029be:	fd1ff0ef          	jal	8000298e <argaddr>
  return fetchstr(addr, buf, max);
    800029c2:	864a                	mv	a2,s2
    800029c4:	85a6                	mv	a1,s1
    800029c6:	fd843503          	ld	a0,-40(s0)
    800029ca:	f69ff0ef          	jal	80002932 <fetchstr>
}
    800029ce:	70a2                	ld	ra,40(sp)
    800029d0:	7402                	ld	s0,32(sp)
    800029d2:	64e2                	ld	s1,24(sp)
    800029d4:	6942                	ld	s2,16(sp)
    800029d6:	6145                	addi	sp,sp,48
    800029d8:	8082                	ret

00000000800029da <syscall>:
[SYS_close]   sys_close,
};

void
syscall(void)
{
    800029da:	1101                	addi	sp,sp,-32
    800029dc:	ec06                	sd	ra,24(sp)
    800029de:	e822                	sd	s0,16(sp)
    800029e0:	e426                	sd	s1,8(sp)
    800029e2:	e04a                	sd	s2,0(sp)
    800029e4:	1000                	addi	s0,sp,32
